Archive member included because of file (symbol)

librumpfs_smbfs_pic.a(smbfs_vfsops.pico)
                              (--whole-archive)
librumpfs_smbfs_pic.a(smbfs_vnops.pico)
                              (--whole-archive)
librumpfs_smbfs_pic.a(smbfs_kq.pico)
                              (--whole-archive)
librumpfs_smbfs_pic.a(smbfs_node.pico)
                              (--whole-archive)
librumpfs_smbfs_pic.a(smbfs_io.pico)
                              (--whole-archive)
librumpfs_smbfs_pic.a(smbfs_smb.pico)
                              (--whole-archive)
librumpfs_smbfs_pic.a(smbfs_subr.pico)
                              (--whole-archive)

Allocating common symbols
Common symbol       size              file

rumpns_smbfs_vnodeop_p
                    0x4               librumpfs_smbfs_pic.a(smbfs_vnops.pico)
rumpns_smbfs_node_pool
                    0xd8              librumpfs_smbfs_pic.a(smbfs_node.pico)

Discarded input sections

 .group         0x0000000000000000        0x8 /usr/local/genode-gcc/bin/../lib/gcc/x86_64-elf/4.7.4/32/crtbegin.o
 .group         0x0000000000000000        0x8 librumpfs_smbfs_pic.a(smbfs_vfsops.pico)
 .text.__x86.get_pc_thunk.bx
                0x0000000000000000        0x4 librumpfs_smbfs_pic.a(smbfs_vfsops.pico)
 .group         0x0000000000000000        0x8 librumpfs_smbfs_pic.a(smbfs_vnops.pico)
 .text.__x86.get_pc_thunk.bx
                0x0000000000000000        0x4 librumpfs_smbfs_pic.a(smbfs_vnops.pico)
 .group         0x0000000000000000        0x8 librumpfs_smbfs_pic.a(smbfs_kq.pico)
 .text.__x86.get_pc_thunk.bx
                0x0000000000000000        0x4 librumpfs_smbfs_pic.a(smbfs_kq.pico)
 .group         0x0000000000000000        0x8 librumpfs_smbfs_pic.a(smbfs_node.pico)
 .text.__x86.get_pc_thunk.bx
                0x0000000000000000        0x4 librumpfs_smbfs_pic.a(smbfs_node.pico)
 .group         0x0000000000000000        0x8 librumpfs_smbfs_pic.a(smbfs_io.pico)
 .text.__x86.get_pc_thunk.bx
                0x0000000000000000        0x4 librumpfs_smbfs_pic.a(smbfs_io.pico)
 .group         0x0000000000000000        0x8 librumpfs_smbfs_pic.a(smbfs_smb.pico)
 .text.__x86.get_pc_thunk.bx
                0x0000000000000000        0x4 librumpfs_smbfs_pic.a(smbfs_smb.pico)
 .group         0x0000000000000000        0x8 librumpfs_smbfs_pic.a(smbfs_subr.pico)
 .text.__x86.get_pc_thunk.bx
                0x0000000000000000        0x4 librumpfs_smbfs_pic.a(smbfs_subr.pico)
 .group         0x0000000000000000        0x8 /usr/local/genode-gcc/bin/../lib/gcc/x86_64-elf/4.7.4/32/crtend.o
 .text.__x86.get_pc_thunk.bx
                0x0000000000000000        0x4 /usr/local/genode-gcc/bin/../lib/gcc/x86_64-elf/4.7.4/32/crtend.o

Memory Configuration

Name             Origin             Length             Attributes
*default*        0x0000000000000000 0xffffffffffffffff

Linker script and memory map

LOAD /usr/local/genode-gcc/bin/../lib/gcc/x86_64-elf/4.7.4/32/crtbegin.o
LOAD librumpfs_smbfs_pic.a
LOAD /usr/local/genode-gcc/bin/../lib/gcc/x86_64-elf/4.7.4/../../../../x86_64-elf/lib/32/libgcc_s.so
LOAD /usr/local/genode-gcc/bin/../lib/gcc/x86_64-elf/4.7.4/../../../../x86_64-elf/lib/32/libgcc_s.so
LOAD /usr/local/genode-gcc/bin/../lib/gcc/x86_64-elf/4.7.4/32/crtend.o
                0x00000000000000b4                . = (0x0 + SIZEOF_HEADERS)

.note.gnu.build-id
 *(.note.gnu.build-id)

.hash           0x00000000000000b4      0x734
 *(.hash)
 .hash          0x00000000000000b4      0x734 /usr/local/genode-gcc/bin/../lib/gcc/x86_64-elf/4.7.4/32/crtbegin.o

.gnu.hash
 *(.gnu.hash)

.dynsym         0x00000000000007e8     0x1060
 *(.dynsym)
 .dynsym        0x00000000000007e8     0x1060 /usr/local/genode-gcc/bin/../lib/gcc/x86_64-elf/4.7.4/32/crtbegin.o

.dynstr         0x0000000000001848     0x1570
 *(.dynstr)
 .dynstr        0x0000000000001848     0x1570 /usr/local/genode-gcc/bin/../lib/gcc/x86_64-elf/4.7.4/32/crtbegin.o

.gnu.version    0x0000000000002db8      0x20c
 *(.gnu.version)
 .gnu.version   0x0000000000002db8      0x20c /usr/local/genode-gcc/bin/../lib/gcc/x86_64-elf/4.7.4/32/crtbegin.o

.gnu.version_d  0x0000000000002fc4        0x0
 *(.gnu.version_d)
 .gnu.version_d
                0x0000000000000000        0x0 /usr/local/genode-gcc/bin/../lib/gcc/x86_64-elf/4.7.4/32/crtbegin.o

.gnu.version_r  0x0000000000002fc4       0x20
 *(.gnu.version_r)
 .gnu.version_r
                0x0000000000002fc4       0x20 /usr/local/genode-gcc/bin/../lib/gcc/x86_64-elf/4.7.4/32/crtbegin.o

.rel.dyn        0x0000000000002fe4      0x3b0
 *(.rel.init)
 *(.rel.text .rel.text.* .rel.gnu.linkonce.t.*)
 .rel.text      0x0000000000000000        0x0 /usr/local/genode-gcc/bin/../lib/gcc/x86_64-elf/4.7.4/32/crtbegin.o
 *(.rel.fini)
 *(.rel.rodata .rel.rodata.* .rel.gnu.linkonce.r.*)
 *(.rel.data.rel.ro* .rel.gnu.linkonce.d.rel.ro.*)
 .rel.data.rel.ro.local
                0x0000000000002fe4       0x38 /usr/local/genode-gcc/bin/../lib/gcc/x86_64-elf/4.7.4/32/crtbegin.o
 .rel.data.rel.ro
                0x000000000000301c       0x18 /usr/local/genode-gcc/bin/../lib/gcc/x86_64-elf/4.7.4/32/crtbegin.o
 *(.rel.data .rel.data.* .rel.gnu.linkonce.d.*)
 .rel.data.rel  0x0000000000003034      0x2f8 /usr/local/genode-gcc/bin/../lib/gcc/x86_64-elf/4.7.4/32/crtbegin.o
 *(.rel.tdata .rel.tdata.* .rel.gnu.linkonce.td.*)
 *(.rel.tbss .rel.tbss.* .rel.gnu.linkonce.tb.*)
 *(.rel.ctors)
 *(.rel.dtors)
 *(.rel.got)
 .rel.got       0x000000000000332c       0x60 /usr/local/genode-gcc/bin/../lib/gcc/x86_64-elf/4.7.4/32/crtbegin.o
 *(.rel.bss .rel.bss.* .rel.gnu.linkonce.b.*)
 *(.rel.ifunc)
 .rel.ifunc     0x0000000000000000        0x0 /usr/local/genode-gcc/bin/../lib/gcc/x86_64-elf/4.7.4/32/crtbegin.o
 .rellink_set_modules
                0x000000000000338c        0x8 /usr/local/genode-gcc/bin/../lib/gcc/x86_64-elf/4.7.4/32/crtbegin.o

.rel.plt        0x0000000000003394      0x508
 *(.rel.plt)
 .rel.plt       0x0000000000003394      0x508 /usr/local/genode-gcc/bin/../lib/gcc/x86_64-elf/4.7.4/32/crtbegin.o
 *(.rel.iplt)

.init           0x000000000000389c        0xa
 *(.init)
 .init          0x000000000000389c        0x5 /usr/local/genode-gcc/bin/../lib/gcc/x86_64-elf/4.7.4/32/crtbegin.o
 .init          0x00000000000038a1        0x5 /usr/local/genode-gcc/bin/../lib/gcc/x86_64-elf/4.7.4/32/crtend.o

.plt            0x00000000000038b0      0xa20
 *(.plt)
 .plt           0x00000000000038b0      0xa20 /usr/local/genode-gcc/bin/../lib/gcc/x86_64-elf/4.7.4/32/crtbegin.o
 *(.iplt)

.text           0x00000000000042d0     0x9448
 *(.text.unlikely .text.*_unlikely)
 *(.text.exit .text.exit.*)
 *(.text.startup .text.startup.*)
 *(.text.hot .text.hot.*)
 *(.text .stub .text.* .gnu.linkonce.t.*)
 .text          0x00000000000042d0      0x13b /usr/local/genode-gcc/bin/../lib/gcc/x86_64-elf/4.7.4/32/crtbegin.o
 .text.__x86.get_pc_thunk.bx
                0x000000000000440b        0x4 /usr/local/genode-gcc/bin/../lib/gcc/x86_64-elf/4.7.4/32/crtbegin.o
                0x000000000000440b                __x86.get_pc_thunk.bx
 *fill*         0x000000000000440f        0x1 90909090
 .text          0x0000000000004410      0xa5d librumpfs_smbfs_pic.a(smbfs_vfsops.pico)
                0x0000000000004410                rumpns_smbfs_start
                0x0000000000004420                rumpns_smbfs_reinit
                0x0000000000004430                rumpns_smbfs_vget
                0x00000000000045e0                rumpns_smbfs_sync
                0x00000000000046c0                rumpns_smbfs_done
                0x00000000000046f0                rumpns_smbfs_init
                0x0000000000004750                rumpns_smbfs_root
                0x0000000000004900                rumpns_smbfs_unmount
                0x0000000000004a30                rumpns_smbfs_mount
                0x0000000000004dc0                rumpns_smbfs_statvfs
 *fill*         0x0000000000004e6d        0x3 90909090
 .text          0x0000000000004e70     0x242b librumpfs_smbfs_pic.a(smbfs_vnops.pico)
                0x0000000000004e70                rumpns_smbfs_fsync
                0x0000000000004e80                rumpns_smbfs_pathconf
                0x0000000000004f10                rumpns_smbfs_symlink
                0x0000000000004f30                rumpns_smbfs_link
                0x0000000000004f50                rumpns_smbfs_lookup
                0x0000000000005790                rumpns_smbfs_advlock
                0x0000000000005ae0                rumpns_smbfs_strategy
                0x0000000000005b60                rumpns_smbfs_print
                0x0000000000005bc0                rumpns_smbfs_readdir
                0x0000000000005c10                rumpns_smbfs_read
                0x0000000000005ce0                rumpns_smbfs_write
                0x0000000000005d50                rumpns_smbfs_getattr
                0x0000000000005e70                rumpns_smbfs_close
                0x0000000000005fc0                rumpns_smbfs_open
                0x0000000000006270                rumpns_smbfs_access
                0x00000000000063b0                rumpns_smbfs_create
                0x0000000000006560                rumpns_smbfs_mkdir
                0x0000000000006710                rumpns_smbfs_remove
                0x00000000000068a0                rumpns_smbfs_rmdir
                0x0000000000006a40                rumpns_smbfs_rename
                0x0000000000006d50                rumpns_smbfs_setattr
 *fill*         0x000000000000729b        0x5 90909090
 .text          0x00000000000072a0      0xdac librumpfs_smbfs_pic.a(smbfs_kq.pico)
                0x0000000000007c50                rumpns_smbfs_kqfilter
 *fill*         0x000000000000804c        0x4 90909090
 .text          0x0000000000008050      0xb93 librumpfs_smbfs_pic.a(smbfs_node.pico)
                0x0000000000008050                rumpns_smbfs_reclaim
                0x0000000000008180                rumpns_smbfs_inactive
                0x00000000000082e0                rumpns_smbfs_attr_cacheenter
                0x00000000000083b0                rumpns_smbfs_nget
                0x0000000000008a60                rumpns_smbfs_attr_cachelookup
 *fill*         0x0000000000008be3        0xd 90909090
 .text          0x0000000000008bf0      0xbe4 librumpfs_smbfs_pic.a(smbfs_io.pico)
                0x0000000000008bf0                rumpns_smbfs_doio
                0x0000000000008dd0                rumpns_smbfs_vinvalbuf
                0x0000000000008f00                rumpns_smbfs_writevnode
                0x0000000000009150                rumpns_smbfs_readvnode
 *fill*         0x00000000000097d4        0xc 90909090
 .text          0x00000000000097e0     0x3776 librumpfs_smbfs_pic.a(smbfs_smb.pico)
                0x00000000000097e0                rumpns_smbfs_smb_lock
                0x00000000000099e0                rumpns_smbfs_smb_statvfs
                0x0000000000009cb0                rumpns_smbfs_smb_setfsize
                0x0000000000009f20                rumpns_smbfs_smb_setpattr
                0x000000000000a0f0                rumpns_smbfs_smb_setptime2
                0x000000000000a330                rumpns_smbfs_smb_setpattrNT
                0x000000000000a590                rumpns_smbfs_smb_setftime
                0x000000000000a770                rumpns_smbfs_smb_setfattrNT
                0x000000000000a980                rumpns_smbfs_smb_open
                0x000000000000ab80                rumpns_smbfs_smb_close
                0x000000000000acb0                rumpns_smbfs_smb_create
                0x000000000000aea0                rumpns_smbfs_smb_delete
                0x000000000000afd0                rumpns_smbfs_smb_rename
                0x000000000000b140                rumpns_smbfs_smb_mkdir
                0x000000000000b260                rumpns_smbfs_smb_rmdir
                0x000000000000b380                rumpns_smbfs_findnext
                0x000000000000c190                rumpns_smbfs_findclose
                0x000000000000c2b0                rumpns_smbfs_findopen
                0x000000000000c410                rumpns_smbfs_smb_lookup
                0x000000000000c6d0                rumpns_smbfs_smb_ntcreatex
                0x000000000000ca30                rumpns_smbfs_smb_nt_dirnotify_setup
                0x000000000000cc80                rumpns_smbfs_smb_nt_dirnotify_fetch
                0x000000000000ce70                rumpns_smbfs_smb_ntcancel
 *fill*         0x000000000000cf56        0xa 90909090
 .text          0x000000000000cf60      0x77d librumpfs_smbfs_pic.a(smbfs_subr.pico)
                0x000000000000cf60                rumpns_smb_time_local2server
                0x000000000000cf80                rumpns_smb_time_server2local
                0x000000000000cfa0                rumpns_smb_time_NT2local
                0x000000000000d040                rumpns_smb_time_local2NT
                0x000000000000d090                rumpns_smb_time_unix2dos
                0x000000000000d310                rumpns_smb_dos2unixtime
                0x000000000000d4a0                rumpns_smbfs_fullpath
                0x000000000000d600                rumpns_smbfs_fname_tolocal
 *fill*         0x000000000000d6dd        0x3 90909090
 .text          0x000000000000d6e0       0x38 /usr/local/genode-gcc/bin/../lib/gcc/x86_64-elf/4.7.4/32/crtend.o
 *(.gnu.warning)

.fini           0x000000000000d718        0x5
 *(.fini)
 .fini          0x000000000000d718        0x5 /usr/local/genode-gcc/bin/../lib/gcc/x86_64-elf/4.7.4/32/crtbegin.o
                0x000000000000d71d                PROVIDE (__etext, .)
                0x000000000000d71d                PROVIDE (_etext, .)
                0x000000000000d71d                PROVIDE (etext, .)

.rodata         0x000000000000d720      0x6c2
 *(.rodata .rodata.* .gnu.linkonce.r.*)
 .rodata.str1.1
                0x000000000000d720       0x42 librumpfs_smbfs_pic.a(smbfs_vfsops.pico)
 *fill*         0x000000000000d762        0x2 00
 .rodata.str1.4
                0x000000000000d764      0x108 librumpfs_smbfs_pic.a(smbfs_vfsops.pico)
 .rodata        0x000000000000d86c       0x37 librumpfs_smbfs_pic.a(smbfs_vnops.pico)
 .rodata.str1.1
                0x000000000000d8a3       0x3e librumpfs_smbfs_pic.a(smbfs_vnops.pico)
 *fill*         0x000000000000d8e1        0x3 00
 .rodata.str1.4
                0x000000000000d8e4       0x33 librumpfs_smbfs_pic.a(smbfs_vnops.pico)
 *fill*         0x000000000000d917        0x1 00
 .rodata.str1.4
                0x000000000000d918       0x97 librumpfs_smbfs_pic.a(smbfs_kq.pico)
                                         0xcc (size before relaxing)
 .rodata.str1.1
                0x000000000000d9af       0x34 librumpfs_smbfs_pic.a(smbfs_kq.pico)
                                         0x40 (size before relaxing)
 *fill*         0x000000000000d9e3        0x1 00
 .rodata.str1.4
                0x000000000000d9e4      0x12a librumpfs_smbfs_pic.a(smbfs_node.pico)
                                        0x15e (size before relaxing)
 .rodata.str1.1
                0x000000000000db0e       0x20 librumpfs_smbfs_pic.a(smbfs_node.pico)
                                         0x2c (size before relaxing)
 *fill*         0x000000000000db2e        0x2 00
 .rodata.str1.4
                0x000000000000db30       0xe5 librumpfs_smbfs_pic.a(smbfs_io.pico)
                                        0x119 (size before relaxing)
 .rodata.str1.1
                0x000000000000dc15       0x1c librumpfs_smbfs_pic.a(smbfs_io.pico)
                                         0x2f (size before relaxing)
 *fill*         0x000000000000dc31        0x3 00
 .rodata.str1.4
                0x000000000000dc34       0xe8 librumpfs_smbfs_pic.a(smbfs_smb.pico)
                                        0x11b (size before relaxing)
 .rodata.str1.1
                0x000000000000dd1c       0x85 librumpfs_smbfs_pic.a(smbfs_smb.pico)
                                         0x91 (size before relaxing)
 .rodata        0x000000000000dda1       0x11 librumpfs_smbfs_pic.a(smbfs_smb.pico)
 .rodata        0x000000000000ddb2       0x30 librumpfs_smbfs_pic.a(smbfs_subr.pico)

.rodata1
 *(.rodata1)

.eh_frame_hdr   0x000000000000dde4      0x294
 *(.eh_frame_hdr)
 .eh_frame_hdr  0x000000000000dde4      0x294 /usr/local/genode-gcc/bin/../lib/gcc/x86_64-elf/4.7.4/32/crtbegin.o

.eh_frame       0x000000000000e078      0xee8
 *(.eh_frame)
 .eh_frame      0x000000000000e078       0x3c /usr/local/genode-gcc/bin/../lib/gcc/x86_64-elf/4.7.4/32/crtbegin.o
                                         0x40 (size before relaxing)
 .eh_frame      0x000000000000e0b4      0x1bc librumpfs_smbfs_pic.a(smbfs_vfsops.pico)
                                        0x1e8 (size before relaxing)
 .eh_frame      0x000000000000e270      0x3a4 librumpfs_smbfs_pic.a(smbfs_vnops.pico)
                                        0x3d0 (size before relaxing)
 .eh_frame      0x000000000000e614      0x160 librumpfs_smbfs_pic.a(smbfs_kq.pico)
                                        0x18c (size before relaxing)
 .eh_frame      0x000000000000e774       0xec librumpfs_smbfs_pic.a(smbfs_node.pico)
                                        0x118 (size before relaxing)
 .eh_frame      0x000000000000e860       0xdc librumpfs_smbfs_pic.a(smbfs_io.pico)
                                        0x108 (size before relaxing)
 .eh_frame      0x000000000000e93c      0x4ac librumpfs_smbfs_pic.a(smbfs_smb.pico)
                                        0x4d8 (size before relaxing)
 .eh_frame      0x000000000000ede8      0x174 librumpfs_smbfs_pic.a(smbfs_subr.pico)
                                        0x1a0 (size before relaxing)
 .eh_frame      0x000000000000ef5c        0x4 /usr/local/genode-gcc/bin/../lib/gcc/x86_64-elf/4.7.4/32/crtend.o

.gcc_except_table
 *(.gcc_except_table .gcc_except_table.*)

.exception_ranges
 *(.exception_ranges .exception_ranges*)
                0x000000000000ef60                . = (ALIGN (0x1000) - ((0x1000 - .) & 0xfff))
                0x000000000000f000                . = DATA_SEGMENT_ALIGN (0x1000, 0x1000)

.eh_frame
 *(.eh_frame)

.gcc_except_table
 *(.gcc_except_table .gcc_except_table.*)

.exception_ranges
 *(.exception_ranges .exception_ranges*)

.tdata
 *(.tdata .tdata.* .gnu.linkonce.td.*)

.tbss
 *(.tbss .tbss.* .gnu.linkonce.tb.*)
 *(.tcommon)

.preinit_array
 *(.preinit_array)

.init_array
 *(SORT(.init_array.*))
 *(.init_array)

.fini_array
 *(SORT(.fini_array.*))
 *(.fini_array)

.ctors          0x000000000000f000        0x8
 *crtbegin.o(.ctors)
 .ctors         0x000000000000f000        0x4 /usr/local/genode-gcc/bin/../lib/gcc/x86_64-elf/4.7.4/32/crtbegin.o
 *crtbegin?.o(.ctors)
 *(EXCLUDE_FILE(*crtend?.o *crtend.o) .ctors)
 *(SORT(.ctors.*))
 *(.ctors)
 .ctors         0x000000000000f004        0x4 /usr/local/genode-gcc/bin/../lib/gcc/x86_64-elf/4.7.4/32/crtend.o

.dtors          0x000000000000f008        0x8
 *crtbegin.o(.dtors)
 .dtors         0x000000000000f008        0x4 /usr/local/genode-gcc/bin/../lib/gcc/x86_64-elf/4.7.4/32/crtbegin.o
 *crtbegin?.o(.dtors)
 *(EXCLUDE_FILE(*crtend?.o *crtend.o) .dtors)
 *(SORT(.dtors.*))
 *(.dtors)
 .dtors         0x000000000000f00c        0x4 /usr/local/genode-gcc/bin/../lib/gcc/x86_64-elf/4.7.4/32/crtend.o
                0x000000000000f00c                __DTOR_END__

.jcr            0x000000000000f010        0x4
 *(.jcr)
 .jcr           0x000000000000f010        0x0 /usr/local/genode-gcc/bin/../lib/gcc/x86_64-elf/4.7.4/32/crtbegin.o
 .jcr           0x000000000000f010        0x4 /usr/local/genode-gcc/bin/../lib/gcc/x86_64-elf/4.7.4/32/crtend.o

.data.rel.ro    0x000000000000f014       0x4c
 *(.data.rel.ro.local* .gnu.linkonce.d.rel.ro.local.*)
 .data.rel.ro.local
                0x000000000000f014       0x14 librumpfs_smbfs_pic.a(smbfs_vfsops.pico)
 .data.rel.ro.local
                0x000000000000f028       0x20 librumpfs_smbfs_pic.a(smbfs_kq.pico)
 *(.data.rel.ro* .gnu.linkonce.d.rel.ro.*)
 .data.rel.ro   0x000000000000f048        0x8 librumpfs_smbfs_pic.a(smbfs_vnops.pico)
                0x000000000000f048                rumpns_smbfs_vnodeop_opv_desc
 .data.rel.ro   0x000000000000f050       0x10 librumpfs_smbfs_pic.a(smbfs_node.pico)

.dynamic        0x000000000000f060       0xb8
 *(.dynamic)
 .dynamic       0x000000000000f060       0xb8 /usr/local/genode-gcc/bin/../lib/gcc/x86_64-elf/4.7.4/32/crtbegin.o
                0x000000000000f060                _DYNAMIC

.got            0x000000000000f118       0x30
 *(.got)
 .got           0x000000000000f118       0x30 /usr/local/genode-gcc/bin/../lib/gcc/x86_64-elf/4.7.4/32/crtbegin.o
 *(.igot)
                0x000000000000f148                . = DATA_SEGMENT_RELRO_END (., 0xc)

.got.plt        0x000000000000f148      0x290
 *(.got.plt)
 .got.plt       0x000000000000f148      0x290 /usr/local/genode-gcc/bin/../lib/gcc/x86_64-elf/4.7.4/32/crtbegin.o
                0x000000000000f148                _GLOBAL_OFFSET_TABLE_
 *(.igot.plt)

.data           0x000000000000f3e0      0x1c8
 *(.data .data.* .gnu.linkonce.d.*)
 .data          0x000000000000f3e0        0x4 /usr/local/genode-gcc/bin/../lib/gcc/x86_64-elf/4.7.4/32/crtbegin.o
                0x000000000000f3e0                __dso_handle
 .data          0x000000000000f3e4        0x0 librumpfs_smbfs_pic.a(smbfs_vfsops.pico)
 *fill*         0x000000000000f3e4       0x1c 00
 .data.rel      0x000000000000f400       0x74 librumpfs_smbfs_pic.a(smbfs_vfsops.pico)
                0x000000000000f400                rumpns_smbfs_vfsops
 .data          0x000000000000f474        0x0 librumpfs_smbfs_pic.a(smbfs_vnops.pico)
 *fill*         0x000000000000f474        0xc 00
 .data.rel      0x000000000000f480      0x128 librumpfs_smbfs_pic.a(smbfs_vnops.pico)
 .data          0x000000000000f5a8        0x0 librumpfs_smbfs_pic.a(smbfs_kq.pico)
 .data          0x000000000000f5a8        0x0 librumpfs_smbfs_pic.a(smbfs_node.pico)
 .data          0x000000000000f5a8        0x0 librumpfs_smbfs_pic.a(smbfs_io.pico)
 .data          0x000000000000f5a8        0x0 librumpfs_smbfs_pic.a(smbfs_smb.pico)
 .data          0x000000000000f5a8        0x0 librumpfs_smbfs_pic.a(smbfs_subr.pico)
 .data          0x000000000000f5a8        0x0 /usr/local/genode-gcc/bin/../lib/gcc/x86_64-elf/4.7.4/32/crtend.o

.tm_clone_table
                0x000000000000f5a8        0x0
 .tm_clone_table
                0x000000000000f5a8        0x0 /usr/local/genode-gcc/bin/../lib/gcc/x86_64-elf/4.7.4/32/crtbegin.o
 .tm_clone_table
                0x000000000000f5a8        0x0 /usr/local/genode-gcc/bin/../lib/gcc/x86_64-elf/4.7.4/32/crtend.o

link_set_modules
                0x000000000000f5a8        0x4
                0x000000000000f5a8                . = ALIGN (0x4)
                0x000000000000f5a8                PROVIDE (__start_link_set_modules, ABSOLUTE (.))
 link_set_modules
                0x000000000000f5a8        0x4 librumpfs_smbfs_pic.a(smbfs_vfsops.pico)
                0x000000000000f5ac                PROVIDE (__stop_link_set_modules, .)

.data1
 *(.data1)
                0x000000000000f5ac                _edata = .
                0x000000000000f5ac                PROVIDE (edata, .)
                0x000000000000f5ac                __bss_start = .

.bss            0x000000000000f5c0      0x138
 *(.dynbss)
 .dynbss        0x0000000000000000        0x0 /usr/local/genode-gcc/bin/../lib/gcc/x86_64-elf/4.7.4/32/crtbegin.o
 *(.bss .bss.* .gnu.linkonce.b.*)
 .bss           0x000000000000f5c0        0x8 /usr/local/genode-gcc/bin/../lib/gcc/x86_64-elf/4.7.4/32/crtbegin.o
 .bss           0x000000000000f5c8        0x4 librumpfs_smbfs_pic.a(smbfs_vfsops.pico)
 .bss           0x000000000000f5cc        0x0 librumpfs_smbfs_pic.a(smbfs_vnops.pico)
 .bss           0x000000000000f5cc       0x24 librumpfs_smbfs_pic.a(smbfs_kq.pico)
 .bss           0x000000000000f5f0        0x0 librumpfs_smbfs_pic.a(smbfs_node.pico)
 .bss           0x000000000000f5f0        0x0 librumpfs_smbfs_pic.a(smbfs_io.pico)
 .bss           0x000000000000f5f0        0x0 librumpfs_smbfs_pic.a(smbfs_smb.pico)
 .bss           0x000000000000f5f0       0x14 librumpfs_smbfs_pic.a(smbfs_subr.pico)
 .bss           0x000000000000f604        0x0 /usr/local/genode-gcc/bin/../lib/gcc/x86_64-elf/4.7.4/32/crtend.o
 *(COMMON)
 COMMON         0x000000000000f604        0x4 librumpfs_smbfs_pic.a(smbfs_vnops.pico)
                0x000000000000f604                rumpns_smbfs_vnodeop_p
 *fill*         0x000000000000f608       0x18 00
 COMMON         0x000000000000f620       0xd8 librumpfs_smbfs_pic.a(smbfs_node.pico)
                0x000000000000f620                rumpns_smbfs_node_pool
                0x000000000000f6f8                . = ALIGN ((. != 0x0)?0x4:0x1)
                0x000000000000f6f8                . = ALIGN (0x4)
                0x000000000000f6f8                . = ALIGN (0x4)
                0x000000000000f6f8                _end = .
                0x000000000000f6f8                PROVIDE (end, .)
                0x000000000000f6f8                . = DATA_SEGMENT_END (.)

.stab
 *(.stab)

.stabstr
 *(.stabstr)

.stab.excl
 *(.stab.excl)

.stab.exclstr
 *(.stab.exclstr)

.stab.index
 *(.stab.index)

.stab.indexstr
 *(.stab.indexstr)

.comment        0x0000000000000000       0x11
 *(.comment)
 .comment       0x0000000000000000       0x11 /usr/local/genode-gcc/bin/../lib/gcc/x86_64-elf/4.7.4/32/crtbegin.o
                                         0x12 (size before relaxing)
 .comment       0x0000000000000000       0x12 librumpfs_smbfs_pic.a(smbfs_vfsops.pico)
 .comment       0x0000000000000000       0x12 librumpfs_smbfs_pic.a(smbfs_vnops.pico)
 .comment       0x0000000000000000       0x12 librumpfs_smbfs_pic.a(smbfs_kq.pico)
 .comment       0x0000000000000000       0x12 librumpfs_smbfs_pic.a(smbfs_node.pico)
 .comment       0x0000000000000000       0x12 librumpfs_smbfs_pic.a(smbfs_io.pico)
 .comment       0x0000000000000000       0x12 librumpfs_smbfs_pic.a(smbfs_smb.pico)
 .comment       0x0000000000000000       0x12 librumpfs_smbfs_pic.a(smbfs_subr.pico)
 .comment       0x0000000000000000       0x12 /usr/local/genode-gcc/bin/../lib/gcc/x86_64-elf/4.7.4/32/crtend.o

.ident          0x0000000000000000      0x1b8
 .ident         0x0000000000000000       0x3f librumpfs_smbfs_pic.a(smbfs_vfsops.pico)
 .ident         0x000000000000003f       0x41 librumpfs_smbfs_pic.a(smbfs_vnops.pico)
 .ident         0x0000000000000080       0x3e librumpfs_smbfs_pic.a(smbfs_kq.pico)
 .ident         0x00000000000000be       0x40 librumpfs_smbfs_pic.a(smbfs_node.pico)
 .ident         0x00000000000000fe       0x3b librumpfs_smbfs_pic.a(smbfs_io.pico)
 .ident         0x0000000000000139       0x3f librumpfs_smbfs_pic.a(smbfs_smb.pico)
 .ident         0x0000000000000178       0x40 librumpfs_smbfs_pic.a(smbfs_subr.pico)

.debug
 *(.debug)

.line
 *(.line)

.debug_srcinfo
 *(.debug_srcinfo)

.debug_sfnames
 *(.debug_sfnames)

.debug_aranges  0x0000000000000000       0xe0
 *(.debug_aranges)
 .debug_aranges
                0x0000000000000000       0x20 librumpfs_smbfs_pic.a(smbfs_vfsops.pico)
 .debug_aranges
                0x0000000000000020       0x20 librumpfs_smbfs_pic.a(smbfs_vnops.pico)
 .debug_aranges
                0x0000000000000040       0x20 librumpfs_smbfs_pic.a(smbfs_kq.pico)
 .debug_aranges
                0x0000000000000060       0x20 librumpfs_smbfs_pic.a(smbfs_node.pico)
 .debug_aranges
                0x0000000000000080       0x20 librumpfs_smbfs_pic.a(smbfs_io.pico)
 .debug_aranges
                0x00000000000000a0       0x20 librumpfs_smbfs_pic.a(smbfs_smb.pico)
 .debug_aranges
                0x00000000000000c0       0x20 librumpfs_smbfs_pic.a(smbfs_subr.pico)

.debug_pubnames
 *(.debug_pubnames)

.debug_info     0x0000000000000000    0x3a87b
 *(.debug_info .gnu.linkonce.wi.*)
 .debug_info    0x0000000000000000     0x7a48 librumpfs_smbfs_pic.a(smbfs_vfsops.pico)
 .debug_info    0x0000000000007a48     0x9c99 librumpfs_smbfs_pic.a(smbfs_vnops.pico)
 .debug_info    0x00000000000116e1     0x8813 librumpfs_smbfs_pic.a(smbfs_kq.pico)
 .debug_info    0x0000000000019ef4     0x819c librumpfs_smbfs_pic.a(smbfs_node.pico)
 .debug_info    0x0000000000022090     0x7817 librumpfs_smbfs_pic.a(smbfs_io.pico)
 .debug_info    0x00000000000298a7     0xa5b9 librumpfs_smbfs_pic.a(smbfs_smb.pico)
 .debug_info    0x0000000000033e60     0x6a1b librumpfs_smbfs_pic.a(smbfs_subr.pico)

.debug_abbrev   0x0000000000000000     0x21f9
 *(.debug_abbrev)
 .debug_abbrev  0x0000000000000000      0x4fd librumpfs_smbfs_pic.a(smbfs_vfsops.pico)
 .debug_abbrev  0x00000000000004fd      0x537 librumpfs_smbfs_pic.a(smbfs_vnops.pico)
 .debug_abbrev  0x0000000000000a34      0x50e librumpfs_smbfs_pic.a(smbfs_kq.pico)
 .debug_abbrev  0x0000000000000f42      0x4d4 librumpfs_smbfs_pic.a(smbfs_node.pico)
 .debug_abbrev  0x0000000000001416      0x4bf librumpfs_smbfs_pic.a(smbfs_io.pico)
 .debug_abbrev  0x00000000000018d5      0x508 librumpfs_smbfs_pic.a(smbfs_smb.pico)
 .debug_abbrev  0x0000000000001ddd      0x41c librumpfs_smbfs_pic.a(smbfs_subr.pico)

.debug_line     0x0000000000000000     0x499e
 *(.debug_line)
 .debug_line    0x0000000000000000      0x8b7 librumpfs_smbfs_pic.a(smbfs_vfsops.pico)
 .debug_line    0x00000000000008b7      0xda8 librumpfs_smbfs_pic.a(smbfs_vnops.pico)
 .debug_line    0x000000000000165f      0xa64 librumpfs_smbfs_pic.a(smbfs_kq.pico)
 .debug_line    0x00000000000020c3      0x927 librumpfs_smbfs_pic.a(smbfs_node.pico)
 .debug_line    0x00000000000029ea      0x94e librumpfs_smbfs_pic.a(smbfs_io.pico)
 .debug_line    0x0000000000003338      0xe98 librumpfs_smbfs_pic.a(smbfs_smb.pico)
 .debug_line    0x00000000000041d0      0x7ce librumpfs_smbfs_pic.a(smbfs_subr.pico)

.debug_frame
 *(.debug_frame)

.debug_str      0x0000000000000000     0x6137
 *(.debug_str)
 .debug_str     0x0000000000000000     0x3d99 librumpfs_smbfs_pic.a(smbfs_vfsops.pico)
                                       0x40e3 (size before relaxing)
 .debug_str     0x0000000000003d99     0x1164 librumpfs_smbfs_pic.a(smbfs_vnops.pico)
                                       0x4758 (size before relaxing)
 .debug_str     0x0000000000004efd      0x7dc librumpfs_smbfs_pic.a(smbfs_kq.pico)
                                       0x4567 (size before relaxing)
 .debug_str     0x00000000000056d9      0x1c3 librumpfs_smbfs_pic.a(smbfs_node.pico)
                                       0x4365 (size before relaxing)
 .debug_str     0x000000000000589c      0x14b librumpfs_smbfs_pic.a(smbfs_io.pico)
                                       0x3cf0 (size before relaxing)
 .debug_str     0x00000000000059e7      0x5ca librumpfs_smbfs_pic.a(smbfs_smb.pico)
                                       0x3ed6 (size before relaxing)
 .debug_str     0x0000000000005fb1      0x186 librumpfs_smbfs_pic.a(smbfs_subr.pico)
                                       0x39eb (size before relaxing)

.debug_loc      0x0000000000000000     0x718d
 *(.debug_loc)
 .debug_loc     0x0000000000000000      0x6d9 librumpfs_smbfs_pic.a(smbfs_vfsops.pico)
 .debug_loc     0x00000000000006d9     0x21ee librumpfs_smbfs_pic.a(smbfs_vnops.pico)
 .debug_loc     0x00000000000028c7      0x97b librumpfs_smbfs_pic.a(smbfs_kq.pico)
 .debug_loc     0x0000000000003242      0x769 librumpfs_smbfs_pic.a(smbfs_node.pico)
 .debug_loc     0x00000000000039ab      0x89d librumpfs_smbfs_pic.a(smbfs_io.pico)
 .debug_loc     0x0000000000004248     0x275a librumpfs_smbfs_pic.a(smbfs_smb.pico)
 .debug_loc     0x00000000000069a2      0x7eb librumpfs_smbfs_pic.a(smbfs_subr.pico)

.debug_macinfo
 *(.debug_macinfo)

.debug_weaknames
 *(.debug_weaknames)

.debug_funcnames
 *(.debug_funcnames)

.debug_typenames
 *(.debug_typenames)

.debug_varnames
 *(.debug_varnames)

.debug_pubtypes
 *(.debug_pubtypes)

.debug_ranges   0x0000000000000000      0x6c0
 *(.debug_ranges)
 .debug_ranges  0x0000000000000000       0x30 librumpfs_smbfs_pic.a(smbfs_vfsops.pico)
 .debug_ranges  0x0000000000000030      0x110 librumpfs_smbfs_pic.a(smbfs_vnops.pico)
 .debug_ranges  0x0000000000000140       0x50 librumpfs_smbfs_pic.a(smbfs_kq.pico)
 .debug_ranges  0x0000000000000190       0xb0 librumpfs_smbfs_pic.a(smbfs_node.pico)
 .debug_ranges  0x0000000000000240       0x30 librumpfs_smbfs_pic.a(smbfs_io.pico)
 .debug_ranges  0x0000000000000270      0x340 librumpfs_smbfs_pic.a(smbfs_smb.pico)
 .debug_ranges  0x00000000000005b0      0x110 librumpfs_smbfs_pic.a(smbfs_subr.pico)

.gnu.attributes
 *(.gnu.attributes)

/DISCARD/
 *(.note.GNU-stack)
 *(.gnu_debuglink)
 *(.gnu.lto_*)
OUTPUT(librumpfs_smbfs.so.0.0 elf32-i386)
