Archive member included because of file (symbol)

librumpnet_net_pic.a(mpls_proto.pico)
                              (--whole-archive)
librumpnet_net_pic.a(net_component.pico)
                              (--whole-archive)
librumpnet_net_pic.a(udp6_usrreq.pico)
                              (--whole-archive)
librumpnet_net_pic.a(udp6_output.pico)
                              (--whole-archive)
librumpnet_net_pic.a(scope6.pico)
                              (--whole-archive)
librumpnet_net_pic.a(route6.pico)
                              (--whole-archive)
librumpnet_net_pic.a(raw_ip6.pico)
                              (--whole-archive)
librumpnet_net_pic.a(nd6_rtr.pico)
                              (--whole-archive)
librumpnet_net_pic.a(nd6_nbr.pico)
                              (--whole-archive)
librumpnet_net_pic.a(nd6.pico)
                              (--whole-archive)
librumpnet_net_pic.a(mld6.pico)
                              (--whole-archive)
librumpnet_net_pic.a(ip6_output.pico)
                              (--whole-archive)
librumpnet_net_pic.a(ip6_mroute.pico)
                              (--whole-archive)
librumpnet_net_pic.a(ip6_input.pico)
                              (--whole-archive)
librumpnet_net_pic.a(ip6_forward.pico)
                              (--whole-archive)
librumpnet_net_pic.a(ip6_flow.pico)
                              (--whole-archive)
librumpnet_net_pic.a(in6_src.pico)
                              (--whole-archive)
librumpnet_net_pic.a(in6_proto.pico)
                              (--whole-archive)
librumpnet_net_pic.a(frag6.pico)
                              (--whole-archive)
librumpnet_net_pic.a(dest6.pico)
                              (--whole-archive)
librumpnet_net_pic.a(in6_pcb.pico)
                              (--whole-archive)
librumpnet_net_pic.a(in6_ifattach.pico)
                              (--whole-archive)
librumpnet_net_pic.a(in6.pico)
                              (--whole-archive)
librumpnet_net_pic.a(icmp6.pico)
                              (--whole-archive)
librumpnet_net_pic.a(udp_usrreq.pico)
                              (--whole-archive)
librumpnet_net_pic.a(tcp_vtw.pico)
                              (--whole-archive)
librumpnet_net_pic.a(tcp_usrreq.pico)
                              (--whole-archive)
librumpnet_net_pic.a(tcp_timer.pico)
                              (--whole-archive)
librumpnet_net_pic.a(tcp_subr.pico)
                              (--whole-archive)
librumpnet_net_pic.a(ip6_id.pico)
                              (--whole-archive)
librumpnet_net_pic.a(tcp_output.pico)
                              (--whole-archive)
librumpnet_net_pic.a(tcp_congctl.pico)
                              (--whole-archive)
librumpnet_net_pic.a(tcp_input.pico)
                              (--whole-archive)
librumpnet_net_pic.a(tcp_sack.pico)
                              (--whole-archive)
librumpnet_net_pic.a(if_arp.pico)
                              (--whole-archive)
librumpnet_net_pic.a(portalgo.pico)
                              (--whole-archive)
librumpnet_net_pic.a(ip_encap.pico)
                              (--whole-archive)
librumpnet_net_pic.a(raw_ip.pico)
                              (--whole-archive)
librumpnet_net_pic.a(ip_output.pico)
                              (--whole-archive)
librumpnet_net_pic.a(ip_reass.pico)
                              (--whole-archive)
librumpnet_net_pic.a(ip_input.pico)
                              (--whole-archive)
librumpnet_net_pic.a(ip_id.pico)
                              (--whole-archive)
librumpnet_net_pic.a(in_pcb.pico)
                              (--whole-archive)
librumpnet_net_pic.a(ip_flow.pico)
                              (--whole-archive)
librumpnet_net_pic.a(ip_icmp.pico)
                              (--whole-archive)
librumpnet_net_pic.a(in_proto.pico)
                              (--whole-archive)
librumpnet_net_pic.a(ip_carp.pico)
                              (--whole-archive)
librumpnet_net_pic.a(if_ethersubr.pico)
                              (--whole-archive)
librumpnet_net_pic.a(if_media.pico)
                              (--whole-archive)
librumpnet_net_pic.a(if_loop.pico)
                              (--whole-archive)
librumpnet_net_pic.a(in6_offload.pico)
                              (--whole-archive)
librumpnet_net_pic.a(in6_cksum.pico)
                              (--whole-archive)
librumpnet_net_pic.a(in_offload.pico)
                              (--whole-archive)
librumpnet_net_pic.a(in4_cksum.pico)
                              (--whole-archive)
librumpnet_net_pic.a(in.pico)
                              (--whole-archive)
librumpnet_net_pic.a(igmp.pico)
                              (--whole-archive)
librumpnet_net_pic.a(net_stats.pico)
                              (--whole-archive)
librumpnet_net_pic.a(in_cksum.pico)
                              (--whole-archive)
librumpnet_net_pic.a(cpu_in_cksum.pico)
                              (--whole-archive)
librumpnet_net_pic.a(uipc_syscalls_50.pico)
                              (--whole-archive)
librumpnet_net_pic.a(if_43.pico)
                              (--whole-archive)
librumpnet_net_pic.a(link_proto.pico)
                              (--whole-archive)
librumpnet_net_pic.a(rtsock_50.pico)
                              (--whole-archive)
librumpnet_net_pic.a(rtsock.pico)
                              (--whole-archive)
librumpnet_net_pic.a(raw_usrreq.pico)
                              (--whole-archive)
librumpnet_net_pic.a(raw_cb.pico)
                              (--whole-archive)
librumpnet_net_pic.a(route.pico)
                              (--whole-archive)
librumpnet_net_pic.a(if.pico)
                              (--whole-archive)
librumpnet_net_pic.a(pfil.pico)
                              (--whole-archive)

Allocating common symbols
Common symbol       size              file

rumpns_zeroin_addr  0x4               librumpnet_net_pic.a(in_pcb.pico)
rumpns_icmpstat_percpu
                    0x4               librumpnet_net_pic.a(ip_icmp.pico)
rumpns_vtw_stats    0x98              librumpnet_net_pic.a(tcp_vtw.pico)
rumpns_vtw_tcpv6    0xa0              librumpnet_net_pic.a(tcp_vtw.pico)
rumpns_tcpstat_percpu
                    0x4               librumpnet_net_pic.a(tcp_subr.pico)
rumpns_syn_hash1    0x4               librumpnet_net_pic.a(tcp_input.pico)
rumpns_nd6_timer_ch
                    0x28              librumpnet_net_pic.a(nd6.pico)
rumpns_mplsintrq    0x18              librumpnet_net_pic.a(mpls_proto.pico)
rumpns_ip6stat_percpu
                    0x4               librumpnet_net_pic.a(ip6_input.pico)
rumpns_rttrash      0x4               librumpnet_net_pic.a(route.pico)
rumpns_ifnet_list   0x8               librumpnet_net_pic.a(if.pico)
rumpns_tcp_congctl_avail
                    0x78              librumpnet_net_pic.a(tcp_congctl.pico)
rumpns_udbtable     0x28              librumpnet_net_pic.a(udp_usrreq.pico)
rumpns_ip_protox    0x100             librumpnet_net_pic.a(in_proto.pico)
rumpns_multicast_register_if6
                    0x214             librumpnet_net_pic.a(ip6_mroute.pico)
rumpns_tcp_iss_secret
                    0x10              librumpnet_net_pic.a(tcp_subr.pico)
rumpns_frag6_nfrags
                    0x4               librumpnet_net_pic.a(frag6.pico)
rumpns_ip_id        0x2               librumpnet_net_pic.a(ip_input.pico)
rumpns_udp6stat_percpu
                    0x4               librumpnet_net_pic.a(udp6_usrreq.pico)
rumpns_encap_head   0x8               librumpnet_net_pic.a(ip_encap.pico)
rumpns_ip6_protox   0x100             librumpnet_net_pic.a(ip6_input.pico)
rumpns_rttimer_queue_head
                    0x4               librumpnet_net_pic.a(route.pico)
rumpns_ip6_desync_factor
                    0x4               librumpnet_net_pic.a(nd6_rtr.pico)
rumpns_tcp_congctl_global_name
                    0xc               librumpnet_net_pic.a(tcp_congctl.pico)
rumpns_in6_ifaddr   0x4               librumpnet_net_pic.a(ip6_input.pico)
rumpns_ip6_sourcecheck
                    0x4               librumpnet_net_pic.a(ip6_input.pico)
rumpns_rtentry_pool
                    0xd8              librumpnet_net_pic.a(route.pico)
rumpns_mif6table    0xf00             librumpnet_net_pic.a(ip6_mroute.pico)
rumpns_nd6_defifindex
                    0x4               librumpnet_net_pic.a(nd6_rtr.pico)
rumpns_zeroin6_addr
                    0x10              librumpnet_net_pic.a(in6_pcb.pico)
rumpns_mrt6stat     0x68              librumpnet_net_pic.a(ip6_mroute.pico)
rumpns_udpstat_percpu
                    0x4               librumpnet_net_pic.a(udp_usrreq.pico)
rumpns_tcbtable     0x28              librumpnet_net_pic.a(tcp_subr.pico)
rumpns_defaultaddrpolicy
                    0x48              librumpnet_net_pic.a(in6_src.pico)
rumpns_syn_cache_count
                    0x4               librumpnet_net_pic.a(tcp_input.pico)
rumpns_fat_tcpv6    0x24              librumpnet_net_pic.a(tcp_vtw.pico)
rumpns_inet6_pfil_hook
                    0x4               librumpnet_net_pic.a(ip6_input.pico)
rumpns_frag6_nfragpackets
                    0x4               librumpnet_net_pic.a(frag6.pico)
rumpns_tcp_log_refused
                    0x4               librumpnet_net_pic.a(tcp_input.pico)
rumpns_in_ifaddrhash
                    0x4               librumpnet_net_pic.a(in.pico)
rumpns_in_ifaddrhead
                    0x8               librumpnet_net_pic.a(in.pico)
rumpns_in_maxmtu    0x4               librumpnet_net_pic.a(in.pico)
rumpns_lo0ifp       0x4               librumpnet_net_pic.a(if.pico)
rumpns_ip6_forward_rt
                    0x14              librumpnet_net_pic.a(ip6_forward.pico)
rumpns_in_ifaddrhashtbl
                    0x4               librumpnet_net_pic.a(in.pico)
rumpns_srv_ip       0x4               librumpnet_net_pic.a(if_arp.pico)
rumpns_tcp_slowtimo_ch
                    0x28              librumpnet_net_pic.a(tcp_subr.pico)
rumpns_raw6cbtable  0x28              librumpnet_net_pic.a(raw_ip6.pico)
rumpns_in6_tmpaddrtimer_ch
                    0x28              librumpnet_net_pic.a(in6_ifattach.pico)
rumpns_fat_tcpv4    0x24              librumpnet_net_pic.a(tcp_vtw.pico)
rumpns_arptimer_ch  0x28              librumpnet_net_pic.a(if_arp.pico)
rumpns_ip6q         0x48              librumpnet_net_pic.a(frag6.pico)
rumpns_ip6_forward_srcrt
                    0x4               librumpnet_net_pic.a(ip6_input.pico)
rumpns_addrsel_policytab
                    0x8               librumpnet_net_pic.a(in6_src.pico)
rumpns_rt_timer_ch  0x28              librumpnet_net_pic.a(route.pico)
rumpns_nd_defrouter
                    0x8               librumpnet_net_pic.a(nd6.pico)
rumpns_syn_hash2    0x4               librumpnet_net_pic.a(tcp_input.pico)
rumpns_myip         0x4               librumpnet_net_pic.a(if_arp.pico)
rumpns_llinfo_arp   0x4               librumpnet_net_pic.a(if_arp.pico)
rumpns_mf6ctable    0x400             librumpnet_net_pic.a(ip6_mroute.pico)
rumpns_rawcbtable   0x28              librumpnet_net_pic.a(raw_ip.pico)
rumpns_tcp_now      0x4               librumpnet_net_pic.a(tcp_subr.pico)
rumpns_if_pfil      0x4               librumpnet_net_pic.a(if.pico)
rumpns_vtw_tcpv4    0xa0              librumpnet_net_pic.a(tcp_vtw.pico)
rumpns_rtstat       0x28              librumpnet_net_pic.a(route.pico)
rumpns_icmp6stat_percpu
                    0x4               librumpnet_net_pic.a(icmp6.pico)
rumpns_n6expire     0x100             librumpnet_net_pic.a(ip6_mroute.pico)
rumpns_rttimer_pool
                    0xd8              librumpnet_net_pic.a(route.pico)
rumpns_arp_allocated
                    0x4               librumpnet_net_pic.a(if_arp.pico)
rumpns_arp_inuse    0x4               librumpnet_net_pic.a(if_arp.pico)
rumpns_tcp_syn_cache
                    0xdbc             librumpnet_net_pic.a(tcp_subr.pico)
rumpns_ip6_sourcecheck_interval
                    0x4               librumpnet_net_pic.a(ip6_input.pico)
rumpns_nd6_slowtimo_ch
                    0x28              librumpnet_net_pic.a(nd6.pico)

Discarded input sections

 .group         0x0000000000000000        0x8 /usr/local/genode-gcc/bin/../lib/gcc/x86_64-elf/4.7.4/32/crtbegin.o
 .group         0x0000000000000000        0x8 librumpnet_net_pic.a(mpls_proto.pico)
 .text.__x86.get_pc_thunk.bx
                0x0000000000000000        0x4 librumpnet_net_pic.a(mpls_proto.pico)
 .group         0x0000000000000000        0x8 librumpnet_net_pic.a(net_component.pico)
 .text.__x86.get_pc_thunk.bx
                0x0000000000000000        0x4 librumpnet_net_pic.a(net_component.pico)
 .group         0x0000000000000000        0x8 librumpnet_net_pic.a(udp6_usrreq.pico)
 .text.__x86.get_pc_thunk.bx
                0x0000000000000000        0x4 librumpnet_net_pic.a(udp6_usrreq.pico)
 .group         0x0000000000000000        0x8 librumpnet_net_pic.a(udp6_output.pico)
 .text.__x86.get_pc_thunk.bx
                0x0000000000000000        0x4 librumpnet_net_pic.a(udp6_output.pico)
 .group         0x0000000000000000        0x8 librumpnet_net_pic.a(scope6.pico)
 .group         0x0000000000000000        0x8 librumpnet_net_pic.a(scope6.pico)
 .text.__x86.get_pc_thunk.bx
                0x0000000000000000        0x4 librumpnet_net_pic.a(scope6.pico)
 .group         0x0000000000000000        0x8 librumpnet_net_pic.a(route6.pico)
 .text.__x86.get_pc_thunk.bx
                0x0000000000000000        0x4 librumpnet_net_pic.a(route6.pico)
 .group         0x0000000000000000        0x8 librumpnet_net_pic.a(raw_ip6.pico)
 .text.__x86.get_pc_thunk.bx
                0x0000000000000000        0x4 librumpnet_net_pic.a(raw_ip6.pico)
 .group         0x0000000000000000        0x8 librumpnet_net_pic.a(nd6_rtr.pico)
 .text.__x86.get_pc_thunk.bx
                0x0000000000000000        0x4 librumpnet_net_pic.a(nd6_rtr.pico)
 .group         0x0000000000000000        0x8 librumpnet_net_pic.a(nd6_nbr.pico)
 .text.__x86.get_pc_thunk.bx
                0x0000000000000000        0x4 librumpnet_net_pic.a(nd6_nbr.pico)
 .group         0x0000000000000000        0x8 librumpnet_net_pic.a(nd6.pico)
 .group         0x0000000000000000        0x8 librumpnet_net_pic.a(nd6.pico)
 .text.__x86.get_pc_thunk.cx
                0x0000000000000000        0x4 librumpnet_net_pic.a(nd6.pico)
 .text.__x86.get_pc_thunk.bx
                0x0000000000000000        0x4 librumpnet_net_pic.a(nd6.pico)
 .group         0x0000000000000000        0x8 librumpnet_net_pic.a(mld6.pico)
 .group         0x0000000000000000        0x8 librumpnet_net_pic.a(mld6.pico)
 .text.__x86.get_pc_thunk.cx
                0x0000000000000000        0x4 librumpnet_net_pic.a(mld6.pico)
 .text.__x86.get_pc_thunk.bx
                0x0000000000000000        0x4 librumpnet_net_pic.a(mld6.pico)
 .group         0x0000000000000000        0x8 librumpnet_net_pic.a(ip6_output.pico)
 .text.__x86.get_pc_thunk.bx
                0x0000000000000000        0x4 librumpnet_net_pic.a(ip6_output.pico)
 .group         0x0000000000000000        0x8 librumpnet_net_pic.a(ip6_mroute.pico)
 .text.__x86.get_pc_thunk.bx
                0x0000000000000000        0x4 librumpnet_net_pic.a(ip6_mroute.pico)
 .group         0x0000000000000000        0x8 librumpnet_net_pic.a(ip6_input.pico)
 .text.__x86.get_pc_thunk.bx
                0x0000000000000000        0x4 librumpnet_net_pic.a(ip6_input.pico)
 .group         0x0000000000000000        0x8 librumpnet_net_pic.a(ip6_forward.pico)
 .text.__x86.get_pc_thunk.bx
                0x0000000000000000        0x4 librumpnet_net_pic.a(ip6_forward.pico)
 .group         0x0000000000000000        0x8 librumpnet_net_pic.a(ip6_flow.pico)
 .text.__x86.get_pc_thunk.bx
                0x0000000000000000        0x4 librumpnet_net_pic.a(ip6_flow.pico)
 .group         0x0000000000000000        0x8 librumpnet_net_pic.a(in6_src.pico)
 .group         0x0000000000000000        0x8 librumpnet_net_pic.a(in6_src.pico)
 .text.__x86.get_pc_thunk.cx
                0x0000000000000000        0x4 librumpnet_net_pic.a(in6_src.pico)
 .text.__x86.get_pc_thunk.bx
                0x0000000000000000        0x4 librumpnet_net_pic.a(in6_src.pico)
 .group         0x0000000000000000        0x8 librumpnet_net_pic.a(in6_proto.pico)
 .group         0x0000000000000000        0x8 librumpnet_net_pic.a(in6_proto.pico)
 .text.__x86.get_pc_thunk.cx
                0x0000000000000000        0x4 librumpnet_net_pic.a(in6_proto.pico)
 .text.__x86.get_pc_thunk.bx
                0x0000000000000000        0x4 librumpnet_net_pic.a(in6_proto.pico)
 .group         0x0000000000000000        0x8 librumpnet_net_pic.a(frag6.pico)
 .group         0x0000000000000000        0x8 librumpnet_net_pic.a(frag6.pico)
 .text.__x86.get_pc_thunk.cx
                0x0000000000000000        0x4 librumpnet_net_pic.a(frag6.pico)
 .text.__x86.get_pc_thunk.bx
                0x0000000000000000        0x4 librumpnet_net_pic.a(frag6.pico)
 .group         0x0000000000000000        0x8 librumpnet_net_pic.a(dest6.pico)
 .text.__x86.get_pc_thunk.bx
                0x0000000000000000        0x4 librumpnet_net_pic.a(dest6.pico)
 .group         0x0000000000000000        0x8 librumpnet_net_pic.a(in6_pcb.pico)
 .text.__x86.get_pc_thunk.bx
                0x0000000000000000        0x4 librumpnet_net_pic.a(in6_pcb.pico)
 .group         0x0000000000000000        0x8 librumpnet_net_pic.a(in6_ifattach.pico)
 .text.__x86.get_pc_thunk.bx
                0x0000000000000000        0x4 librumpnet_net_pic.a(in6_ifattach.pico)
 .group         0x0000000000000000        0x8 librumpnet_net_pic.a(in6.pico)
 .text.__x86.get_pc_thunk.bx
                0x0000000000000000        0x4 librumpnet_net_pic.a(in6.pico)
 .group         0x0000000000000000        0x8 librumpnet_net_pic.a(icmp6.pico)
 .text.__x86.get_pc_thunk.bx
                0x0000000000000000        0x4 librumpnet_net_pic.a(icmp6.pico)
 .group         0x0000000000000000        0x8 librumpnet_net_pic.a(udp_usrreq.pico)
 .text.__x86.get_pc_thunk.bx
                0x0000000000000000        0x4 librumpnet_net_pic.a(udp_usrreq.pico)
 .group         0x0000000000000000        0x8 librumpnet_net_pic.a(tcp_vtw.pico)
 .text.__x86.get_pc_thunk.bx
                0x0000000000000000        0x4 librumpnet_net_pic.a(tcp_vtw.pico)
 .group         0x0000000000000000        0x8 librumpnet_net_pic.a(tcp_usrreq.pico)
 .text.__x86.get_pc_thunk.bx
                0x0000000000000000        0x4 librumpnet_net_pic.a(tcp_usrreq.pico)
 .group         0x0000000000000000        0x8 librumpnet_net_pic.a(tcp_timer.pico)
 .text.__x86.get_pc_thunk.bx
                0x0000000000000000        0x4 librumpnet_net_pic.a(tcp_timer.pico)
 .group         0x0000000000000000        0x8 librumpnet_net_pic.a(tcp_subr.pico)
 .group         0x0000000000000000        0x8 librumpnet_net_pic.a(tcp_subr.pico)
 .text.__x86.get_pc_thunk.cx
                0x0000000000000000        0x4 librumpnet_net_pic.a(tcp_subr.pico)
 .text.__x86.get_pc_thunk.bx
                0x0000000000000000        0x4 librumpnet_net_pic.a(tcp_subr.pico)
 .group         0x0000000000000000        0x8 librumpnet_net_pic.a(ip6_id.pico)
 .group         0x0000000000000000        0x8 librumpnet_net_pic.a(ip6_id.pico)
 .text.__x86.get_pc_thunk.cx
                0x0000000000000000        0x4 librumpnet_net_pic.a(ip6_id.pico)
 .text.__x86.get_pc_thunk.bx
                0x0000000000000000        0x4 librumpnet_net_pic.a(ip6_id.pico)
 .group         0x0000000000000000        0x8 librumpnet_net_pic.a(tcp_output.pico)
 .text.__x86.get_pc_thunk.bx
                0x0000000000000000        0x4 librumpnet_net_pic.a(tcp_output.pico)
 .group         0x0000000000000000        0x8 librumpnet_net_pic.a(tcp_congctl.pico)
 .text.__x86.get_pc_thunk.bx
                0x0000000000000000        0x4 librumpnet_net_pic.a(tcp_congctl.pico)
 .group         0x0000000000000000        0x8 librumpnet_net_pic.a(tcp_input.pico)
 .text.__x86.get_pc_thunk.bx
                0x0000000000000000        0x4 librumpnet_net_pic.a(tcp_input.pico)
 .group         0x0000000000000000        0x8 librumpnet_net_pic.a(tcp_sack.pico)
 .text.__x86.get_pc_thunk.bx
                0x0000000000000000        0x4 librumpnet_net_pic.a(tcp_sack.pico)
 .group         0x0000000000000000        0x8 librumpnet_net_pic.a(if_arp.pico)
 .group         0x0000000000000000        0x8 librumpnet_net_pic.a(if_arp.pico)
 .text.__x86.get_pc_thunk.cx
                0x0000000000000000        0x4 librumpnet_net_pic.a(if_arp.pico)
 .text.__x86.get_pc_thunk.bx
                0x0000000000000000        0x4 librumpnet_net_pic.a(if_arp.pico)
 .group         0x0000000000000000        0x8 librumpnet_net_pic.a(portalgo.pico)
 .text.__x86.get_pc_thunk.bx
                0x0000000000000000        0x4 librumpnet_net_pic.a(portalgo.pico)
 .group         0x0000000000000000        0x8 librumpnet_net_pic.a(ip_encap.pico)
 .text.__x86.get_pc_thunk.bx
                0x0000000000000000        0x4 librumpnet_net_pic.a(ip_encap.pico)
 .group         0x0000000000000000        0x8 librumpnet_net_pic.a(raw_ip.pico)
 .text.__x86.get_pc_thunk.bx
                0x0000000000000000        0x4 librumpnet_net_pic.a(raw_ip.pico)
 .group         0x0000000000000000        0x8 librumpnet_net_pic.a(ip_output.pico)
 .text.__x86.get_pc_thunk.bx
                0x0000000000000000        0x4 librumpnet_net_pic.a(ip_output.pico)
 .group         0x0000000000000000        0x8 librumpnet_net_pic.a(ip_reass.pico)
 .text.__x86.get_pc_thunk.bx
                0x0000000000000000        0x4 librumpnet_net_pic.a(ip_reass.pico)
 .group         0x0000000000000000        0x8 librumpnet_net_pic.a(ip_input.pico)
 .group         0x0000000000000000        0x8 librumpnet_net_pic.a(ip_input.pico)
 .text.__x86.get_pc_thunk.cx
                0x0000000000000000        0x4 librumpnet_net_pic.a(ip_input.pico)
 .text.__x86.get_pc_thunk.bx
                0x0000000000000000        0x4 librumpnet_net_pic.a(ip_input.pico)
 .group         0x0000000000000000        0x8 librumpnet_net_pic.a(ip_id.pico)
 .text.__x86.get_pc_thunk.bx
                0x0000000000000000        0x4 librumpnet_net_pic.a(ip_id.pico)
 .group         0x0000000000000000        0x8 librumpnet_net_pic.a(in_pcb.pico)
 .text.__x86.get_pc_thunk.bx
                0x0000000000000000        0x4 librumpnet_net_pic.a(in_pcb.pico)
 .group         0x0000000000000000        0x8 librumpnet_net_pic.a(ip_flow.pico)
 .text.__x86.get_pc_thunk.bx
                0x0000000000000000        0x4 librumpnet_net_pic.a(ip_flow.pico)
 .group         0x0000000000000000        0x8 librumpnet_net_pic.a(ip_icmp.pico)
 .text.__x86.get_pc_thunk.bx
                0x0000000000000000        0x4 librumpnet_net_pic.a(ip_icmp.pico)
 .group         0x0000000000000000        0x8 librumpnet_net_pic.a(in_proto.pico)
 .text.__x86.get_pc_thunk.bx
                0x0000000000000000        0x4 librumpnet_net_pic.a(in_proto.pico)
 .group         0x0000000000000000        0x8 librumpnet_net_pic.a(ip_carp.pico)
 .text.__x86.get_pc_thunk.bx
                0x0000000000000000        0x4 librumpnet_net_pic.a(ip_carp.pico)
 .group         0x0000000000000000        0x8 librumpnet_net_pic.a(if_ethersubr.pico)
 .text.__x86.get_pc_thunk.bx
                0x0000000000000000        0x4 librumpnet_net_pic.a(if_ethersubr.pico)
 .group         0x0000000000000000        0x8 librumpnet_net_pic.a(if_media.pico)
 .text.__x86.get_pc_thunk.bx
                0x0000000000000000        0x4 librumpnet_net_pic.a(if_media.pico)
 .group         0x0000000000000000        0x8 librumpnet_net_pic.a(if_loop.pico)
 .text.__x86.get_pc_thunk.bx
                0x0000000000000000        0x4 librumpnet_net_pic.a(if_loop.pico)
 .group         0x0000000000000000        0x8 librumpnet_net_pic.a(in6_offload.pico)
 .text.__x86.get_pc_thunk.bx
                0x0000000000000000        0x4 librumpnet_net_pic.a(in6_offload.pico)
 .group         0x0000000000000000        0x8 librumpnet_net_pic.a(in6_cksum.pico)
 .text.__x86.get_pc_thunk.bx
                0x0000000000000000        0x4 librumpnet_net_pic.a(in6_cksum.pico)
 .group         0x0000000000000000        0x8 librumpnet_net_pic.a(in_offload.pico)
 .text.__x86.get_pc_thunk.bx
                0x0000000000000000        0x4 librumpnet_net_pic.a(in_offload.pico)
 .group         0x0000000000000000        0x8 librumpnet_net_pic.a(in4_cksum.pico)
 .text.__x86.get_pc_thunk.bx
                0x0000000000000000        0x4 librumpnet_net_pic.a(in4_cksum.pico)
 .group         0x0000000000000000        0x8 librumpnet_net_pic.a(in.pico)
 .text.__x86.get_pc_thunk.bx
                0x0000000000000000        0x4 librumpnet_net_pic.a(in.pico)
 .group         0x0000000000000000        0x8 librumpnet_net_pic.a(igmp.pico)
 .text.__x86.get_pc_thunk.bx
                0x0000000000000000        0x4 librumpnet_net_pic.a(igmp.pico)
 .group         0x0000000000000000        0x8 librumpnet_net_pic.a(net_stats.pico)
 .text.__x86.get_pc_thunk.bx
                0x0000000000000000        0x4 librumpnet_net_pic.a(net_stats.pico)
 .group         0x0000000000000000        0x8 librumpnet_net_pic.a(in_cksum.pico)
 .text.__x86.get_pc_thunk.bx
                0x0000000000000000        0x4 librumpnet_net_pic.a(in_cksum.pico)
 .group         0x0000000000000000        0x8 librumpnet_net_pic.a(cpu_in_cksum.pico)
 .text.__x86.get_pc_thunk.bx
                0x0000000000000000        0x4 librumpnet_net_pic.a(cpu_in_cksum.pico)
 .group         0x0000000000000000        0x8 librumpnet_net_pic.a(uipc_syscalls_50.pico)
 .text.__x86.get_pc_thunk.bx
                0x0000000000000000        0x4 librumpnet_net_pic.a(uipc_syscalls_50.pico)
 .group         0x0000000000000000        0x8 librumpnet_net_pic.a(if_43.pico)
 .text.__x86.get_pc_thunk.bx
                0x0000000000000000        0x4 librumpnet_net_pic.a(if_43.pico)
 .group         0x0000000000000000        0x8 librumpnet_net_pic.a(link_proto.pico)
 .text.__x86.get_pc_thunk.bx
                0x0000000000000000        0x4 librumpnet_net_pic.a(link_proto.pico)
 .group         0x0000000000000000        0x8 librumpnet_net_pic.a(rtsock_50.pico)
 .text.__x86.get_pc_thunk.bx
                0x0000000000000000        0x4 librumpnet_net_pic.a(rtsock_50.pico)
 .group         0x0000000000000000        0x8 librumpnet_net_pic.a(rtsock.pico)
 .text.__x86.get_pc_thunk.bx
                0x0000000000000000        0x4 librumpnet_net_pic.a(rtsock.pico)
 .group         0x0000000000000000        0x8 librumpnet_net_pic.a(raw_usrreq.pico)
 .group         0x0000000000000000        0x8 librumpnet_net_pic.a(raw_usrreq.pico)
 .text.__x86.get_pc_thunk.cx
                0x0000000000000000        0x4 librumpnet_net_pic.a(raw_usrreq.pico)
 .text.__x86.get_pc_thunk.bx
                0x0000000000000000        0x4 librumpnet_net_pic.a(raw_usrreq.pico)
 .group         0x0000000000000000        0x8 librumpnet_net_pic.a(raw_cb.pico)
 .text.__x86.get_pc_thunk.bx
                0x0000000000000000        0x4 librumpnet_net_pic.a(raw_cb.pico)
 .group         0x0000000000000000        0x8 librumpnet_net_pic.a(route.pico)
 .text.__x86.get_pc_thunk.bx
                0x0000000000000000        0x4 librumpnet_net_pic.a(route.pico)
 .group         0x0000000000000000        0x8 librumpnet_net_pic.a(if.pico)
 .group         0x0000000000000000        0x8 librumpnet_net_pic.a(if.pico)
 .text.__x86.get_pc_thunk.cx
                0x0000000000000000        0x4 librumpnet_net_pic.a(if.pico)
 .text.__x86.get_pc_thunk.bx
                0x0000000000000000        0x4 librumpnet_net_pic.a(if.pico)
 .group         0x0000000000000000        0x8 librumpnet_net_pic.a(pfil.pico)
 .text.__x86.get_pc_thunk.bx
                0x0000000000000000        0x4 librumpnet_net_pic.a(pfil.pico)
 .group         0x0000000000000000        0x8 /usr/local/genode-gcc/bin/../lib/gcc/x86_64-elf/4.7.4/32/crtend.o
 .text.__x86.get_pc_thunk.bx
                0x0000000000000000        0x4 /usr/local/genode-gcc/bin/../lib/gcc/x86_64-elf/4.7.4/32/crtend.o

Memory Configuration

Name             Origin             Length             Attributes
*default*        0x0000000000000000 0xffffffffffffffff

Linker script and memory map

LOAD /usr/local/genode-gcc/bin/../lib/gcc/x86_64-elf/4.7.4/32/crtbegin.o
LOAD librumpnet_net_pic.a
LOAD /usr/local/genode-gcc/bin/../lib/gcc/x86_64-elf/4.7.4/../../../../x86_64-elf/lib/32/libgcc_s.so
LOAD /usr/local/genode-gcc/bin/../lib/gcc/x86_64-elf/4.7.4/../../../../x86_64-elf/lib/32/libgcc_s.so
LOAD /usr/local/genode-gcc/bin/../lib/gcc/x86_64-elf/4.7.4/32/crtend.o
                0x00000000000000b4                . = (0x0 + SIZEOF_HEADERS)

.note.gnu.build-id
 *(.note.gnu.build-id)

.hash           0x00000000000000b4     0x220c
 *(.hash)
 .hash          0x00000000000000b4     0x220c /usr/local/genode-gcc/bin/../lib/gcc/x86_64-elf/4.7.4/32/crtbegin.o

.gnu.hash
 *(.gnu.hash)

.dynsym         0x00000000000022c0     0x47a0
 *(.dynsym)
 .dynsym        0x00000000000022c0     0x47a0 /usr/local/genode-gcc/bin/../lib/gcc/x86_64-elf/4.7.4/32/crtbegin.o

.dynstr         0x0000000000006a60     0x5de2
 *(.dynstr)
 .dynstr        0x0000000000006a60     0x5de2 /usr/local/genode-gcc/bin/../lib/gcc/x86_64-elf/4.7.4/32/crtbegin.o

.gnu.version    0x000000000000c842      0x8f4
 *(.gnu.version)
 .gnu.version   0x000000000000c842      0x8f4 /usr/local/genode-gcc/bin/../lib/gcc/x86_64-elf/4.7.4/32/crtbegin.o

.gnu.version_d  0x000000000000d138        0x0
 *(.gnu.version_d)
 .gnu.version_d
                0x0000000000000000        0x0 /usr/local/genode-gcc/bin/../lib/gcc/x86_64-elf/4.7.4/32/crtbegin.o

.gnu.version_r  0x000000000000d138       0x20
 *(.gnu.version_r)
 .gnu.version_r
                0x000000000000d138       0x20 /usr/local/genode-gcc/bin/../lib/gcc/x86_64-elf/4.7.4/32/crtbegin.o

.rel.dyn        0x000000000000d158     0x18b0
 *(.rel.init)
 *(.rel.text .rel.text.* .rel.gnu.linkonce.t.*)
 .rel.text      0x0000000000000000        0x0 /usr/local/genode-gcc/bin/../lib/gcc/x86_64-elf/4.7.4/32/crtbegin.o
 .rel.text.unlikely
                0x0000000000000000        0x0 /usr/local/genode-gcc/bin/../lib/gcc/x86_64-elf/4.7.4/32/crtbegin.o
 *(.rel.fini)
 *(.rel.rodata .rel.rodata.* .rel.gnu.linkonce.r.*)
 *(.rel.data.rel.ro* .rel.gnu.linkonce.d.rel.ro.*)
 .rel.data.rel.ro
                0x000000000000d158      0x568 /usr/local/genode-gcc/bin/../lib/gcc/x86_64-elf/4.7.4/32/crtbegin.o
 .rel.data.rel.ro.local
                0x000000000000d6c0      0x690 /usr/local/genode-gcc/bin/../lib/gcc/x86_64-elf/4.7.4/32/crtbegin.o
 *(.rel.data .rel.data.* .rel.gnu.linkonce.d.*)
 .rel.data.rel  0x000000000000dd50       0xf8 /usr/local/genode-gcc/bin/../lib/gcc/x86_64-elf/4.7.4/32/crtbegin.o
 .rel.data.rel.local
                0x000000000000de48       0xb8 /usr/local/genode-gcc/bin/../lib/gcc/x86_64-elf/4.7.4/32/crtbegin.o
 *(.rel.tdata .rel.tdata.* .rel.gnu.linkonce.td.*)
 *(.rel.tbss .rel.tbss.* .rel.gnu.linkonce.tb.*)
 *(.rel.ctors)
 *(.rel.dtors)
 *(.rel.got)
 .rel.got       0x000000000000df00      0xaa0 /usr/local/genode-gcc/bin/../lib/gcc/x86_64-elf/4.7.4/32/crtbegin.o
 *(.rel.bss .rel.bss.* .rel.gnu.linkonce.b.*)
 *(.rel.ifunc)
 .rel.ifunc     0x0000000000000000        0x0 /usr/local/genode-gcc/bin/../lib/gcc/x86_64-elf/4.7.4/32/crtbegin.o
 .rellink_set_domains
                0x000000000000e9a0       0x38 /usr/local/genode-gcc/bin/../lib/gcc/x86_64-elf/4.7.4/32/crtbegin.o
 .rellink_set_rump_components
                0x000000000000e9d8       0x18 /usr/local/genode-gcc/bin/../lib/gcc/x86_64-elf/4.7.4/32/crtbegin.o
 .rellink_set_sysctl_funcs
                0x000000000000e9f0       0x18 /usr/local/genode-gcc/bin/../lib/gcc/x86_64-elf/4.7.4/32/crtbegin.o

.rel.plt        0x000000000000ea08     0x1520
 *(.rel.plt)
 .rel.plt       0x000000000000ea08     0x1520 /usr/local/genode-gcc/bin/../lib/gcc/x86_64-elf/4.7.4/32/crtbegin.o
 *(.rel.iplt)

.init           0x000000000000ff28        0xa
 *(.init)
 .init          0x000000000000ff28        0x5 /usr/local/genode-gcc/bin/../lib/gcc/x86_64-elf/4.7.4/32/crtbegin.o
 .init          0x000000000000ff2d        0x5 /usr/local/genode-gcc/bin/../lib/gcc/x86_64-elf/4.7.4/32/crtend.o

.plt            0x000000000000ff40     0x2a50
 *(.plt)
 .plt           0x000000000000ff40     0x2a50 /usr/local/genode-gcc/bin/../lib/gcc/x86_64-elf/4.7.4/32/crtbegin.o
 *(.iplt)

.text           0x0000000000012990    0x793f8
 *(.text.unlikely .text.*_unlikely)
 .text.unlikely
                0x0000000000012990       0x48 librumpnet_net_pic.a(ip6_output.pico)
 .text.unlikely
                0x00000000000129d8       0x48 librumpnet_net_pic.a(ip6_forward.pico)
 .text.unlikely
                0x0000000000012a20       0x48 librumpnet_net_pic.a(ip6_flow.pico)
 .text.unlikely
                0x0000000000012a68       0xf1 librumpnet_net_pic.a(in6_src.pico)
 .text.unlikely
                0x0000000000012b59      0x2a8 librumpnet_net_pic.a(in6_pcb.pico)
 .text.unlikely
                0x0000000000012e01      0x33e librumpnet_net_pic.a(icmp6.pico)
 .text.unlikely
                0x000000000001313f      0x101 librumpnet_net_pic.a(tcp_usrreq.pico)
 .text.unlikely
                0x0000000000013240      0x137 librumpnet_net_pic.a(tcp_input.pico)
 .text.unlikely
                0x0000000000013377       0x48 librumpnet_net_pic.a(ip_output.pico)
 .text.unlikely
                0x00000000000133bf       0x48 librumpnet_net_pic.a(in_pcb.pico)
 .text.unlikely
                0x0000000000013407       0x48 librumpnet_net_pic.a(ip_flow.pico)
 .text.unlikely
                0x000000000001344f       0xa4 librumpnet_net_pic.a(rtsock_50.pico)
 .text.unlikely
                0x00000000000134f3       0x9e librumpnet_net_pic.a(rtsock.pico)
 .text.unlikely
                0x0000000000013591       0x48 librumpnet_net_pic.a(route.pico)
 *(.text.exit .text.exit.*)
 *(.text.startup .text.startup.*)
 *(.text.hot .text.hot.*)
 *(.text .stub .text.* .gnu.linkonce.t.*)
 *fill*         0x00000000000135d9        0x7 90909090
 .text          0x00000000000135e0      0x13b /usr/local/genode-gcc/bin/../lib/gcc/x86_64-elf/4.7.4/32/crtbegin.o
 .text.__x86.get_pc_thunk.bx
                0x000000000001371b        0x4 /usr/local/genode-gcc/bin/../lib/gcc/x86_64-elf/4.7.4/32/crtbegin.o
                0x000000000001371b                __x86.get_pc_thunk.bx
 *fill*         0x000000000001371f        0x1 90909090
 .text          0x0000000000013720     0x1257 librumpnet_net_pic.a(mpls_proto.pico)
                0x0000000000014320                rumpns_mpls_init
 *fill*         0x0000000000014977        0x9 90909090
 .text          0x0000000000014980       0x7e librumpnet_net_pic.a(net_component.pico)
 *fill*         0x00000000000149fe        0x2 90909090
 .text          0x0000000000014a00     0x26ec librumpnet_net_pic.a(udp6_usrreq.pico)
                0x0000000000015e50                rumpns_udp6_init
                0x0000000000016290                rumpns_udp6_ctlinput
                0x00000000000164b0                rumpns_udp6_ctloutput
                0x0000000000016570                rumpns_udp6_realinput
                0x0000000000016870                rumpns_udp6_input_checksum
                0x0000000000016950                rumpns_udp6_input
                0x0000000000016c60                rumpns_udp6_usrreq
                0x0000000000017060                rumpns_udp6_statinc
 *fill*         0x00000000000170ec        0x4 90909090
 .text          0x00000000000170f0      0xc00 librumpnet_net_pic.a(udp6_output.pico)
                0x00000000000170f0                rumpns_udp6_output
 .text          0x0000000000017cf0      0x88e librumpnet_net_pic.a(scope6.pico)
                0x0000000000017cf0                rumpns_scope6_init
                0x0000000000017d30                rumpns_scope6_ifattach
                0x0000000000017df0                rumpns_scope6_ifdetach
                0x0000000000017e10                rumpns_scope6_set
                0x0000000000017eb0                rumpns_scope6_get
                0x0000000000017f30                rumpns_in6_addrscope
                0x0000000000018000                rumpns_scope6_setdefault
                0x0000000000018040                rumpns_scope6_get_default
                0x00000000000180f0                rumpns_scope6_addr2default
                0x0000000000018140                rumpns_sa6_embedscope
                0x0000000000018200                rumpns_sa6_recoverscope
                0x00000000000182f0                rumpns_sockaddr_in6_externalize
                0x0000000000018350                rumpns_in6_setzoneid
                0x00000000000183a0                rumpns_in6_setscope
                0x00000000000184a0                rumpns_in6_getscopename
                0x0000000000018530                rumpns_in6_clearscope
 .text.__x86.get_pc_thunk.cx
                0x000000000001857e        0x4 librumpnet_net_pic.a(scope6.pico)
                0x000000000001857e                __x86.get_pc_thunk.cx
 *fill*         0x0000000000018582        0xe 90909090
 .text          0x0000000000018590      0x14a librumpnet_net_pic.a(route6.pico)
                0x0000000000018590                rumpns_route6_input
 *fill*         0x00000000000186da        0x6 90909090
 .text          0x00000000000186e0     0x2a8e librumpnet_net_pic.a(raw_ip6.pico)
                0x0000000000019670                rumpns_rip6_init
                0x0000000000019900                rumpns_rip6_input
                0x0000000000019fd0                rumpns_rip6_ctlinput
                0x000000000001a150                rumpns_rip6_output
                0x000000000001aa90                rumpns_rip6_ctloutput
                0x000000000001abc0                rumpns_rip6_attach
                0x000000000001ae40                rumpns_rip6_usrreq
 *fill*         0x000000000001b16e        0x2 90909090
 .text          0x000000000001b170     0x346e librumpnet_net_pic.a(nd6_rtr.pico)
                0x000000000001b3e0                rumpns_nd6_rs_input
                0x000000000001b710                rumpns_nd6_rtmsg
                0x000000000001b8e0                rumpns_defrouter_addreq
                0x000000000001ba30                rumpns_defrouter_lookup
                0x000000000001ba90                rumpns_defrouter_reset
                0x000000000001bad0                rumpns_defrouter_select
                0x000000000001bcb0                rumpns_nd6_prefix_lookup
                0x000000000001bd20                rumpns_nd6_prefix_onlink
                0x000000000001c020                rumpns_nd6_prefix_offlink
                0x000000000001c330                rumpns_pfxlist_onlink_check
                0x000000000001c720                rumpns_prelist_remove
                0x000000000001c890                rumpns_nd6_prelist_add
                0x000000000001cb90                rumpns_in6_tmpifadd
                0x000000000001cf40                rumpns_rt6_flush
                0x000000000001cfc0                rumpns_defrtrlist_del
                0x000000000001d110                rumpns_nd6_ra_input
                0x000000000001e570                rumpns_nd6_setdefaultiface
 *fill*         0x000000000001e5de        0x2 90909090
 .text          0x000000000001e5e0     0x2767 librumpnet_net_pic.a(nd6_nbr.pico)
                0x000000000001e620                rumpns_nd6_ifptomac
                0x000000000001e680                rumpns_nd6_na_output
                0x000000000001ec10                rumpns_nd6_ns_output
                0x000000000001f2a0                rumpns_nd6_newaddrmsg
                0x000000000001f360                rumpns_nd6_dad_start
                0x000000000001f660                rumpns_nd6_dad_stop
                0x000000000001f6e0                rumpns_nd6_dad_duplicated
                0x000000000001fba0                rumpns_nd6_na_input
                0x0000000000020400                rumpns_nd6_ns_input
 *fill*         0x0000000000020d47        0x9 90909090
 .text          0x0000000000020d50     0x3e29 librumpnet_net_pic.a(nd6.pico)
                0x0000000000021210                rumpns_nd6_timer
                0x0000000000021570                rumpns_nd6_init
                0x0000000000021640                rumpns_nd6_ifattach
                0x0000000000021710                rumpns_nd6_ifdetach
                0x0000000000021730                rumpns_nd6_setmtu
                0x0000000000021750                rumpns_nd6_option_init
                0x0000000000021800                rumpns_nd6_option
                0x00000000000218f0                rumpns_nd6_options
                0x0000000000021b20                rumpns_nd6_llinfo_settimer
                0x0000000000022110                rumpns_nd6_accepts_rtadv
                0x0000000000022150                rumpns_nd6_purge
                0x00000000000222c0                rumpns_nd6_lookup
                0x00000000000222e0                rumpns_nd6_is_addr_neighbor
                0x0000000000022440                rumpns_nd6_nud_hint
                0x0000000000022530                rumpns_nd6_ioctl
                0x0000000000022f60                rumpns_nd6_need_cache
                0x0000000000022fc0                rumpns_nd6_output
                0x0000000000023450                rumpns_nd6_llinfo_release_pkts
                0x00000000000234c0                rumpns_nd6_cache_lladdr
                0x0000000000023830                rumpns_nd6_rtrequest
                0x0000000000024120                rumpns_nd6_storelladdr
                0x0000000000024360                rumpns_nd6_sysctl
 *fill*         0x0000000000024b79        0x7 90909090
 .text          0x0000000000024b80     0x198c librumpnet_net_pic.a(mld6.pico)
                0x0000000000024b80                rumpns_sysctl_in6_mklude_setup
                0x0000000000025800                rumpns_mld_init
                0x0000000000025850                rumpns_mld_input
                0x0000000000025c70                rumpns_in6_addmulti
                0x0000000000025ef0                rumpns_in6_delmulti
                0x0000000000026120                rumpns_in6_joingroup
                0x00000000000261a0                rumpns_in6_leavegroup
                0x00000000000261e0                rumpns_in6_savemkludge
                0x0000000000026370                rumpns_in6_restoremkludge
                0x0000000000026410                rumpns_in6_createmkludge
                0x0000000000026490                rumpns_in6_purgemkludge
 *fill*         0x000000000002650c        0x4 90909090
 .text          0x0000000000026510     0x43a4 librumpnet_net_pic.a(ip6_output.pico)
                0x0000000000026c10                rumpns_in6_delayed_cksum
                0x0000000000026db0                rumpns_ip6_raw_ctloutput
                0x0000000000026ee0                rumpns_ip6_initpktopts
                0x0000000000026f70                rumpns_ip6_clearpktopts
                0x0000000000027840                rumpns_ip6_copypktopts
                0x00000000000278b0                rumpns_ip6_freepcbopts
                0x0000000000027900                rumpns_ip6_get_membership
                0x0000000000027bb0                rumpns_ip6_ctloutput
                0x0000000000028a60                rumpns_ip6_freemoptions
                0x0000000000028ac0                rumpns_ip6_setpktopts
                0x0000000000028c10                rumpns_ip6_mloopback
                0x0000000000028cf0                rumpns_ip6_output
                0x000000000002a810                rumpns_ip6_optlen
 *fill*         0x000000000002a8b4        0xc 90909090
 .text          0x000000000002a8c0     0x2d27 librumpnet_net_pic.a(ip6_mroute.pico)
                0x000000000002b850                rumpns_pim6_init
                0x000000000002ba30                rumpns_ip6_mrouter_get
                0x000000000002ba90                rumpns_mrt6_ioctl
                0x000000000002bc30                rumpns_ip6_mrouter_done
                0x000000000002bde0                rumpns_ip6_mrouter_set
                0x000000000002ca20                rumpns_ip6_mrouter_detach
                0x000000000002caf0                rumpns_ip6_mforward
                0x000000000002d250                rumpns_pim6_input
 *fill*         0x000000000002d5e7        0x9 90909090
 .text          0x000000000002d5f0     0x3b6f librumpnet_net_pic.a(ip6_input.pico)
                0x000000000002da60                rumpns_ip6_init
                0x000000000002f4b0                rumpns_ip6_unknown_opt
                0x000000000002f5c0                rumpns_ip6_hopopts_input
                0x000000000002f8f0                rumpns_ip6_savecontrol
                0x000000000002fd30                rumpns_ip6_notify_pmtu
                0x000000000002ff10                rumpns_ip6_get_prevhdr
                0x000000000002ff80                rumpns_ip6_nexthdr
                0x0000000000030140                rumpns_ip6_lasthdr
                0x00000000000301c0                rumpns_ip6_addaux
                0x00000000000302b0                rumpns_ip6_findaux
                0x00000000000302e0                rumpns_ip6_getdstifaddr
                0x0000000000030310                rumpns_ip6_delaux
                0x0000000000030360                rumpns_ip6_input
                0x00000000000310d0                rumpns_ip6_statinc
 *fill*         0x000000000003115f        0x1 90909090
 .text          0x0000000000031160      0xb8c librumpnet_net_pic.a(ip6_forward.pico)
                0x0000000000031350                rumpns_ip6_forward
 *fill*         0x0000000000031cec        0x4 90909090
 .text          0x0000000000031cf0      0xc9f librumpnet_net_pic.a(ip6_flow.pico)
                0x0000000000031fe0                rumpns_ip6flow_poolinit
                0x0000000000032040                rumpns_ip6flow_init
                0x00000000000320d0                rumpns_ip6flow_fastforward
                0x0000000000032330                rumpns_ip6flow_reap
                0x0000000000032530                rumpns_ip6flow_slowtimo
                0x00000000000326a0                rumpns_ip6flow_create
                0x0000000000032930                rumpns_ip6flow_invalidate_all
 *fill*         0x000000000003298f        0x1 90909090
 .text          0x0000000000032990      0xec9 librumpnet_net_pic.a(in6_src.pico)
                0x0000000000032c70                rumpns_in6_selectsrc
                0x0000000000033340                rumpns_in6_selectroute
                0x0000000000033380                rumpns_in6_selecthlim
                0x00000000000333d0                rumpns_in6_pcbsetport
                0x00000000000334c0                rumpns_addrsel_policy_init
                0x0000000000033510                rumpns_in6_src_sysctl
                0x0000000000033670                rumpns_in6_src_ioctl
 *fill*         0x0000000000033859        0x7 90909090
 .text          0x0000000000033860      0x3c2 librumpnet_net_pic.a(in6_proto.pico)
 *fill*         0x0000000000033c22        0xe 90909090
 .text          0x0000000000033c30     0x1015 librumpnet_net_pic.a(frag6.pico)
                0x0000000000033ea0                rumpns_frag6_init
                0x0000000000033ee0                rumpns_frag6_input
                0x00000000000349a0                rumpns_ip6_reass_packet
                0x0000000000034a00                rumpns_frag6_slowtimo
                0x0000000000034b30                rumpns_frag6_drainstub
                0x0000000000034b50                rumpns_frag6_drain
                0x0000000000034bd0                rumpns_frag6_fasttimo
 *fill*         0x0000000000034c45        0xb 90909090
 .text          0x0000000000034c50      0x1b6 librumpnet_net_pic.a(dest6.pico)
                0x0000000000034c50                rumpns_dest6_input
 *fill*         0x0000000000034e06        0xa 90909090
 .text          0x0000000000034e10     0x26a0 librumpnet_net_pic.a(in6_pcb.pico)
                0x0000000000034e10                rumpns_in6_rtchange
                0x0000000000034ea0                rumpns_in6_pcbinit
                0x0000000000034f10                rumpns_in6_setsockaddr
                0x0000000000034f80                rumpns_in6_setpeeraddr
                0x0000000000034ff0                rumpns_in6_pcbnotify
                0x00000000000354e0                rumpns_in6_pcbpurgeif0
                0x00000000000355b0                rumpns_in6_pcbpurgeif
                0x00000000000356a0                rumpns_in6_losing
                0x0000000000035890                rumpns_in6_pcblookup_port
                0x0000000000035e60                rumpns_in6_pcbrtentry
                0x0000000000036150                rumpns_in6_pcblookup_connect
                0x00000000000363c0                rumpns_in6_pcblookup_bind
                0x00000000000366d0                rumpns_in6_pcbstate
                0x0000000000036910                rumpns_in6_pcbdetach
                0x0000000000036a60                rumpns_in6_pcbdisconnect
                0x0000000000036ad0                rumpns_in6_pcbbind
                0x0000000000036cc0                rumpns_in6_pcbconnect
                0x00000000000372b0                rumpns_in6_pcballoc
 .text          0x00000000000374b0     0x1208 librumpnet_net_pic.a(in6_ifattach.pico)
                0x00000000000376c0                rumpns_in6_tmpaddrtimer
                0x00000000000377d0                rumpns_in6_get_hw_ifid
                0x0000000000037a20                rumpns_in6_nigroup
                0x0000000000037c10                rumpns_in6_ifattach
                0x0000000000038430                rumpns_in6_ifdetach
                0x00000000000385e0                rumpns_in6_get_tmpifid
 *fill*         0x00000000000386b8        0x8 90909090
 .text          0x00000000000386c0     0x387e librumpnet_net_pic.a(in6.pico)
                0x0000000000038810                rumpns_in6_mask2len
                0x00000000000388d0                rumpns_in6_purgeif
                0x0000000000038920                rumpns_in6ifa_ifpforlinklocal
                0x0000000000038990                rumpns_in6ifa_ifpwithaddr
                0x0000000000038a20                rumpns_ip6_sprintf
                0x0000000000038c20                rumpns_in6_ifremloop
                0x0000000000038d10                rumpns_in6_ifaddloop
                0x0000000000038da0                rumpns_in6_purgeaddr
                0x0000000000038e90                rumpns_in6_localaddr
                0x0000000000038f40                rumpns_in6_is_addr_deprecated
                0x0000000000038fb0                rumpns_in6_matchlen
                0x0000000000039010                rumpns_in6_are_prefix_equal
                0x00000000000390c0                rumpns_in6_prefixlen2mask
                0x0000000000039160                rumpns_in6_ifawithifp
                0x0000000000039320                rumpns_in6_if_link_down
                0x00000000000393d0                rumpns_in6_if_down
                0x00000000000393f0                rumpns_in6if_do_dad
                0x0000000000039420                rumpns_in6_if_link_up
                0x0000000000039560                rumpns_in6_if_up
                0x00000000000395a0                rumpns_in6_update_ifa
                0x000000000003b9b0                rumpns_in6_control
                0x000000000003baf0                rumpns_in6_setmaxmtu
                0x000000000003bbf0                rumpns_in6_if2idlen
                0x000000000003bc90                rumpns_in6_domifattach
                0x000000000003bd30                rumpns_in6_domifdetach
                0x000000000003bd90                rumpns_in6_sin6_2_sin
                0x000000000003bdd0                rumpns_in6_sin_2_v4mapsin6
                0x000000000003be80                rumpns_in6_sin6_2_sin_in_sock
                0x000000000003bee0                rumpns_in6_sin_2_v4mapsin6_in_sock
 *fill*         0x000000000003bf3e        0x2 90909090
 .text          0x000000000003bf40     0x55cf librumpnet_net_pic.a(icmp6.pico)
                0x000000000003c450                rumpns_icmp6_init
                0x000000000003cfd0                rumpns_icmp6_mtudisc_callback_register
                0x000000000003d040                rumpns_icmp6_mtudisc_update
                0x000000000003d340                rumpns_icmp6_reflect
                0x000000000003da20                rumpns_icmp6_error
                0x000000000003de70                rumpns_icmp6_error2
                0x000000000003df30                rumpns_icmp6_redirect_input
                0x000000000003e740                rumpns_icmp6_input
                0x0000000000040bb0                rumpns_icmp6_redirect_output
                0x0000000000041360                rumpns_icmp6_ctloutput
                0x0000000000041480                rumpns_icmp6_statinc
 *fill*         0x000000000004150f        0x1 90909090
 .text          0x0000000000041510     0x2a2c librumpnet_net_pic.a(udp_usrreq.pico)
                0x0000000000042ce0                rumpns_udp_init_common
                0x0000000000042d20                rumpns_udp_init
                0x00000000000431e0                rumpns_udp_input_checksum
                0x0000000000043290                rumpns_udp_input
                0x0000000000043800                rumpns_udp_ctlinput
                0x0000000000043900                rumpns_udp_ctloutput
                0x0000000000043a40                rumpns_udp_output
                0x0000000000043eb0                rumpns_udp_statinc
 *fill*         0x0000000000043f3c        0x4 90909090
 .text          0x0000000000043f40     0x4644 librumpnet_net_pic.a(tcp_vtw.pico)
                0x0000000000045d40                rumpns_vtw_del
                0x00000000000475b0                rumpns_vtw_add
                0x0000000000047a90                rumpns_vtw_restart
                0x0000000000048390                rumpns_sysctl_tcp_vtw_enable
                0x00000000000484d0                rumpns_vtw_earlyinit
 *fill*         0x0000000000048584        0xc 90909090
 .text          0x0000000000048590     0x5726 librumpnet_net_pic.a(tcp_usrreq.pico)
                0x0000000000048ca0                rumpns_sysctl_inpcblist
                0x000000000004d230                rumpns_tcp_ctloutput
                0x000000000004d5c0                rumpns_tcp_usrclosed
                0x000000000004d830                rumpns_tcp_disconnect1
                0x000000000004da50                rumpns_sysctl_net_inet_ip_ports
                0x000000000004dc70                rumpns_tcp_usrreq_init
 *fill*         0x000000000004dcb6        0xa 90909090
 .text          0x000000000004dcc0      0xac7 librumpnet_net_pic.a(tcp_timer.pico)
                0x000000000004dcc0                rumpns_tcp_timer_2msl
                0x000000000004dde0                rumpns_tcp_timer_keep
                0x000000000004e060                rumpns_tcp_timer_persist
                0x000000000004e1d0                rumpns_tcp_timer_rexmt
                0x000000000004e590                rumpns_tcp_timer_init
                0x000000000004e620                rumpns_tcp_delack
                0x000000000004e6c0                rumpns_tcp_slowtimo
                0x000000000004e740                rumpns_tcp_canceltimers
 *fill*         0x000000000004e787        0x9 90909090
 .text          0x000000000004e790     0x378e librumpnet_net_pic.a(tcp_subr.pico)
                0x000000000004e790                rumpns_tcp6_mtudisc
                0x000000000004e860                rumpns_tcp_mtudisc
                0x000000000004e930                rumpns_tcp_notify
                0x000000000004eb40                rumpns_tcp6_notify
                0x000000000004ed50                rumpns_tcp_init_common
                0x000000000004ede0                rumpns_tcp_init
                0x000000000004ee10                rumpns_tcp_template
                0x000000000004f240                rumpns_tcp_respond
                0x000000000004fdd0                rumpns_tcp_tcpcb_template
                0x000000000004ffd0                rumpns_tcp_newtcpcb
                0x00000000000502f0                rumpns_tcp_freeq
                0x0000000000050420                rumpns_tcp_close
                0x00000000000509e0                rumpns_tcp_drop
                0x0000000000050b00                rumpns_tcp_drainstub
                0x0000000000050b20                rumpns_tcp_drain
                0x0000000000050c80                rumpns_tcp_fasttimo
                0x0000000000050cb0                rumpns_tcp6_ctlinput
                0x0000000000050f20                rumpns_tcp_quench
                0x0000000000050f50                rumpns_tcp6_quench
                0x0000000000050f80                rumpns_tcp6_mtudisc_callback
                0x00000000000510a0                rumpns_tcp_mss_to_advertise
                0x00000000000511c0                rumpns_tcp_established
                0x0000000000051460                rumpns_tcp_rmx_rtt
                0x0000000000051620                rumpns_tcp_new_iss1
                0x00000000000517c0                rumpns_tcp_new_iss
                0x0000000000051870                rumpns_tcp_optlen
                0x00000000000518a0                rumpns_tcp_mss_from_peer
                0x0000000000051a40                rumpns_tcp_hdrsz
                0x0000000000051a90                rumpns_tcp_ctlinput
                0x0000000000051df0                rumpns_tcp_statinc
                0x0000000000051e80                rumpns_tcp_statadd
 *fill*         0x0000000000051f1e        0x2 90909090
 .text          0x0000000000051f20      0x594 librumpnet_net_pic.a(ip6_id.pico)
                0x0000000000052470                rumpns_ip6_randomid
                0x0000000000052490                rumpns_ip6_randomflowlabel
 *fill*         0x00000000000524b4        0xc 90909090
 .text          0x00000000000524c0     0x24c7 librumpnet_net_pic.a(tcp_output.pico)
                0x00000000000524c0                rumpns_tcp_setpersist
                0x00000000000525a0                rumpns_tcp_output
 *fill*         0x0000000000054987        0x9 90909090
 .text          0x0000000000054990     0x1026 librumpnet_net_pic.a(tcp_congctl.pico)
                0x0000000000055420                rumpns_tcp_congctl_unregister
                0x00000000000554e0                rumpns_tcp_congctl_select
                0x0000000000055660                rumpns_tcp_congctl_register
                0x0000000000055720                rumpns_tcp_congctl_init
                0x00000000000558b0                rumpns_tcp_congctl_release
                0x0000000000055940                rumpns_tcp_congctl_bystruct
 *fill*         0x00000000000559b6        0xa 90909090
 .text          0x00000000000559c0     0x7695 librumpnet_net_pic.a(tcp_input.pico)
                0x0000000000055f60                rumpns_tcpipqent_init
                0x0000000000055fc0                rumpns_tcpipqent_alloc
                0x0000000000056020                rumpns_tcpipqent_free
                0x0000000000056d70                rumpns_tcp_input_checksum
                0x0000000000056f30                rumpns_tcp_pulloutofband
                0x0000000000056fd0                rumpns_tcp_xmit_timer
                0x0000000000057170                rumpns_syn_cache_init
                0x0000000000057200                rumpns_syn_cache_insert
                0x0000000000057620                rumpns_syn_cache_cleanup
                0x00000000000577a0                rumpns_syn_cache_lookup
                0x00000000000578d0                rumpns_syn_cache_reset
                0x0000000000057a70                rumpns_syn_cache_unreach
                0x0000000000057c30                rumpns_syn_cache_respond
                0x00000000000583a0                rumpns_syn_cache_add
                0x0000000000058af0                rumpns_syn_cache_get
                0x00000000000595c0                rumpns_tcp_input
                0x000000000005cd00                rumpns_tcp6_input
                0x000000000005cdc0                rumpns_syn_cache_timer
 *fill*         0x000000000005d055        0xb 90909090
 .text          0x000000000005d060      0x75b librumpnet_net_pic.a(tcp_sack.pico)
                0x000000000005d1b0                rumpns_tcp_sack_init
                0x000000000005d210                rumpns_tcp_new_dsack
                0x000000000005d240                rumpns_tcp_sack_option
                0x000000000005d5b0                rumpns_tcp_del_sackholes
                0x000000000005d630                rumpns_tcp_free_sackholes
                0x000000000005d6c0                rumpns_tcp_sack_output
                0x000000000005d710                rumpns_tcp_sack_adjust
                0x000000000005d790                rumpns_tcp_sack_numblks
 *fill*         0x000000000005d7bb        0x5 90909090
 .text          0x000000000005d7c0     0x2b16 librumpnet_net_pic.a(if_arp.pico)
                0x000000000005dc10                rumpns_arp_init
                0x000000000005ee40                rumpns_arp_drain
                0x000000000005ef90                rumpns_arprequest
                0x000000000005f110                rumpns_arp_rtrequest
                0x000000000005f8e0                rumpns_arpresolve
                0x000000000005fc70                rumpns_arpintr
                0x000000000005fe40                rumpns_arpioctl
                0x000000000005fe50                rumpns_arp_ifinit
                0x000000000005fec0                rumpns_in_revarpinput
                0x0000000000060010                rumpns_revarpinput
                0x0000000000060090                rumpns_revarprequest
                0x0000000000060200                rumpns_revarpwhoarewe
 *fill*         0x00000000000602d6        0xa 90909090
 .text          0x00000000000602e0     0x1375 librumpnet_net_pic.a(portalgo.pico)
                0x0000000000061100                rumpns_portalgo_randport
                0x0000000000061290                rumpns_portalgo_algo_index_select
                0x00000000000612c0                rumpns_sysctl_portalgo_selected4
                0x0000000000061320                rumpns_sysctl_portalgo_reserve4
                0x00000000000613f0                rumpns_sysctl_portalgo_selected6
                0x0000000000061450                rumpns_sysctl_portalgo_reserve6
                0x0000000000061520                rumpns_sysctl_portalgo_available
 *fill*         0x0000000000061655        0xb 90909090
 .text          0x0000000000061660      0xe34 librumpnet_net_pic.a(ip_encap.pico)
                0x0000000000061990                rumpns_encap_init
                0x00000000000619f0                rumpns_encap4_input
                0x0000000000061c30                rumpns_encap6_input
                0x0000000000061cf0                rumpns_encap_attach
                0x00000000000620d0                rumpns_encap_attach_func
                0x00000000000621f0                rumpns_encap6_ctlinput
                0x0000000000062350                rumpns_encap_detach
                0x0000000000062430                rumpns_encap_getarg
 *fill*         0x0000000000062494        0xc 90909090
 .text          0x00000000000624a0     0x1fbe librumpnet_net_pic.a(raw_ip.pico)
                0x0000000000062cd0                rumpns_rip_input
                0x0000000000063570                rumpns_rip_init
                0x0000000000063750                rumpns_rip_pcbnotify
                0x00000000000637c0                rumpns_rip_ctlinput
                0x0000000000063880                rumpns_rip_output
                0x0000000000063b00                rumpns_rip_ctloutput
                0x0000000000063cc0                rumpns_rip_connect_pcb
                0x0000000000064080                rumpns_rip_usrreq
 *fill*         0x000000000006445e        0x2 90909090
 .text          0x0000000000064460     0x25b6 librumpnet_net_pic.a(ip_output.pico)
                0x0000000000064710                rumpns_in_delayed_cksum
                0x00000000000647f0                rumpns_ip_optlen
                0x0000000000064810                rumpns_ip_optcopy
                0x00000000000649b0                rumpns_ip_fragment
                0x0000000000064f00                rumpns_ip_output
                0x0000000000065fd0                rumpns_ip_setmoptions
                0x0000000000066380                rumpns_ip_getmoptions
                0x0000000000066480                rumpns_ip_ctloutput
                0x00000000000669c0                rumpns_ip_freemoptions
 *fill*         0x0000000000066a16        0xa 90909090
 .text          0x0000000000066a20     0x1058 librumpnet_net_pic.a(ip_reass.pico)
                0x0000000000066c70                rumpns_sysctl_ip_reass_setup
                0x0000000000066e30                rumpns_ip_reass_init
                0x0000000000066f10                rumpns_ip_reass_drain
                0x0000000000066fb0                rumpns_ip_reass_slowtimo
                0x00000000000670b0                rumpns_ip_reass_packet
 *fill*         0x0000000000067a78        0x8 90909090
 .text          0x0000000000067a80     0x2b8c librumpnet_net_pic.a(ip_input.pico)
                0x0000000000069260                rumpns_ip_init
                0x000000000006a110                rumpns_ip_slowtimo
                0x000000000006a180                rumpns_ip_drain
                0x000000000006a1c0                rumpns_ip_srcroute
                0x000000000006a2b0                rumpns_ip_fasttimo
                0x000000000006a2e0                rumpns_ip_drainstub
                0x000000000006a300                rumpns_ip_savecontrol
                0x000000000006a580                rumpns_ip_statinc
 *fill*         0x000000000006a60c        0x4 90909090
 .text          0x000000000006a610      0x1a0 librumpnet_net_pic.a(ip_id.pico)
                0x000000000006a610                rumpns_ip_id_init
                0x000000000006a6b0                rumpns_ip_id_fini
                0x000000000006a6f0                rumpns_ip_randomid
 .text          0x000000000006a7b0     0x1b4b librumpnet_net_pic.a(in_pcb.pico)
                0x000000000006a810                rumpns_in_pcbinit
                0x000000000006a8f0                rumpns_in_setsockaddr
                0x000000000006a940                rumpns_in_setpeeraddr
                0x000000000006a990                rumpns_in_pcbnotify
                0x000000000006aa50                rumpns_in_pcbnotifyall
                0x000000000006aab0                rumpns_in_purgeifmcast
                0x000000000006ab50                rumpns_in_pcbpurgeif0
                0x000000000006abb0                rumpns_in_losing
                0x000000000006ada0                rumpns_in_rtchange
                0x000000000006add0                rumpns_in_pcbpurgeif
                0x000000000006aec0                rumpns_in_pcblookup_port
                0x000000000006b1d0                rumpns_in_pcblookup_connect
                0x000000000006b370                rumpns_in_pcblookup_bind
                0x000000000006b4a0                rumpns_in_pcbstate
                0x000000000006b6e0                rumpns_in_pcbdetach
                0x000000000006b7f0                rumpns_in_pcbdisconnect
                0x000000000006bcd0                rumpns_in_pcbbind
                0x000000000006be10                rumpns_in_pcbconnect
                0x000000000006c0c0                rumpns_in_pcballoc
                0x000000000006c290                rumpns_in_pcbrtentry
 *fill*         0x000000000006c2fb        0x5 90909090
 .text          0x000000000006c300      0xe1e librumpnet_net_pic.a(ip_flow.pico)
                0x000000000006c610                rumpns_ipflow_poolinit
                0x000000000006c670                rumpns_ipflow_init
                0x000000000006c7b0                rumpns_ipflow_fastforward
                0x000000000006cad0                rumpns_ipflow_reap
                0x000000000006cca0                rumpns_ipflow_slowtimo
                0x000000000006ce20                rumpns_ipflow_create
                0x000000000006d0c0                rumpns_ipflow_invalidate_all
 *fill*         0x000000000006d11e        0x2 90909090
 .text          0x000000000006d120     0x1e53 librumpnet_net_pic.a(ip_icmp.pico)
                0x000000000006d4f0                rumpns_icmp_init
                0x000000000006da70                rumpns_icmp_mtudisc_callback_register
                0x000000000006dae0                rumpns_icmp_send
                0x000000000006db90                rumpns_icmp_reflect
                0x000000000006e020                rumpns_iptime
                0x000000000006e0a0                rumpns_icmp_input
                0x000000000006e750                rumpns_icmp_statinc
                0x000000000006e7e0                rumpns_icmp_mtudisc
                0x000000000006ea20                rumpns_ip_next_mtu
                0x000000000006eab0                rumpns_icmp_ratelimit
                0x000000000006eaf0                rumpns_icmp_error
 *fill*         0x000000000006ef73        0xd 90909090
 .text          0x000000000006ef80      0x3b8 librumpnet_net_pic.a(in_proto.pico)
                0x000000000006ef80                rumpns_sockaddr_in_const_addr
                0x000000000006efc0                rumpns_sockaddr_in_addr
                0x000000000006f2a0                rumpns_sockaddr_in_cmp
 *fill*         0x000000000006f338        0x8 90909090
 .text          0x000000000006f340     0x4549 librumpnet_net_pic.a(ip_carp.pico)
                0x000000000006fa30                rumpns_carp_output
                0x0000000000071570                rumpns_carp_proto_input
                0x0000000000071870                rumpns_carp6_proto_input
                0x0000000000071b80                rumpns_carpattach
                0x0000000000071bc0                rumpns_carp_ifdetach
                0x0000000000071bf0                rumpns_carp_iamatch
                0x0000000000071db0                rumpns_carp_iamatch6
                0x0000000000071e40                rumpns_carp_ourether
                0x0000000000071f30                rumpns_carp_input
                0x0000000000072040                rumpns_carp_carpdev_state
                0x0000000000073470                rumpns_carp_init
 *fill*         0x0000000000073889        0x7 90909090
 .text          0x0000000000073890     0x1c02 librumpnet_net_pic.a(if_ethersubr.pico)
                0x0000000000073890                rumpns_sysctl_net_ether_setup
                0x0000000000074150                rumpns_ether_input
                0x0000000000074920                rumpns_ether_snprintf
                0x00000000000749a0                rumpns_ether_sprintf
                0x00000000000749e0                rumpns_ether_ifattach
                0x0000000000074ab0                rumpns_ether_ifdetach
                0x0000000000074b70                rumpns_ether_crc32_le
                0x0000000000074bd0                rumpns_ether_crc32_be
                0x0000000000074c40                rumpns_ether_aton_r
                0x0000000000074d70                rumpns_ether_multiaddr
                0x0000000000074e90                rumpns_ether_addmulti
                0x0000000000075030                rumpns_ether_delmulti
                0x0000000000075160                rumpns_ether_set_ifflags_cb
                0x0000000000075170                rumpns_ether_ioctl
                0x0000000000075460                rumpns_etherinit
 *fill*         0x0000000000075492        0xe 90909090
 .text          0x00000000000754a0      0x5cc librumpnet_net_pic.a(if_media.pico)
                0x00000000000754a0                rumpns_ifmedia_init
                0x00000000000754e0                rumpns_ifmedia_change
                0x0000000000075500                rumpns_ifmedia_add
                0x0000000000075580                rumpns_ifmedia_list_add
                0x00000000000755e0                rumpns_ifmedia_match
                0x0000000000075660                rumpns_ifmedia_ioctl
                0x0000000000075870                rumpns_ifmedia_set
                0x0000000000075940                rumpns_ifmedia_delete_instance
                0x00000000000759b0                rumpns_ifmedia_removeall
                0x0000000000075a10                rumpns_ifmedia_baudrate
 *fill*         0x0000000000075a6c        0x4 90909090
 .text          0x0000000000075a70      0x730 librumpnet_net_pic.a(if_loop.pico)
                0x0000000000075a70                rumpns_lortrequest
                0x0000000000075aa0                rumpns_looutput
                0x00000000000760a0                rumpns_loioctl
                0x0000000000076160                rumpns_loopattach
 .text          0x00000000000761a0      0x804 librumpnet_net_pic.a(in6_offload.pico)
                0x00000000000761e0                rumpns_tcp6_segment
                0x0000000000076750                rumpns_ip6_tso_output
                0x00000000000767b0                rumpns_ip6_undefer_csum
 *fill*         0x00000000000769a4        0xc 90909090
 .text          0x00000000000769b0      0x1d9 librumpnet_net_pic.a(in6_cksum.pico)
                0x00000000000769b0                rumpns_in6_cksum
 *fill*         0x0000000000076b89        0x7 90909090
 .text          0x0000000000076b90      0x932 librumpnet_net_pic.a(in_offload.pico)
                0x0000000000076c10                rumpns_tcp4_segment
                0x0000000000077230                rumpns_ip_tso_output
                0x0000000000077280                rumpns_ip_undefer_csum
 *fill*         0x00000000000774c2        0xe 90909090
 .text          0x00000000000774d0      0x121 librumpnet_net_pic.a(in4_cksum.pico)
                0x00000000000774d0                rumpns_in4_cksum
 *fill*         0x00000000000775f1        0xf 90909090
 .text          0x0000000000077600     0x2386 librumpnet_net_pic.a(in.pico)
                0x0000000000077640                rumpns_in_init
                0x0000000000077960                rumpns_in_localaddr
                0x00000000000779d0                rumpns_in_canforward
                0x0000000000077a10                rumpns_in_socktrim
                0x0000000000077a40                rumpns_in_fmtaddr
                0x0000000000077ab0                rumpns_in_setmaxmtu
                0x0000000000077b20                rumpns_in_purgeif
                0x0000000000077b70                rumpns_in_ifscrub
                0x0000000000077cb0                rumpns_in_broadcast
                0x0000000000077d40                rumpns_in_lookup_multi
                0x0000000000077df0                rumpns_in_multi_group
                0x0000000000077ec0                rumpns_in_addmulti
                0x00000000000780d0                rumpns_in_ifinit
                0x0000000000078510                rumpns_in_delmulti
                0x0000000000078600                rumpns_in_purgeaddr
                0x00000000000786b0                rumpns_in_control
                0x0000000000079630                rumpns_in_next_multi
                0x00000000000796f0                rumpns_in_first_multi
                0x0000000000079780                rumpns_in_multi_lock
                0x00000000000797b0                rumpns_in_multi_unlock
                0x00000000000797e0                rumpns_in_multi_lock_held
                0x0000000000079810                rumpns_in_selectsrc
 *fill*         0x0000000000079986        0xa 90909090
 .text          0x0000000000079990     0x1040 librumpnet_net_pic.a(igmp.pico)
                0x0000000000079c10                rumpns_igmp_init
                0x0000000000079e40                rumpns_igmp_input
                0x000000000007a500                rumpns_igmp_joingroup
                0x000000000007a6e0                rumpns_igmp_leavegroup
                0x000000000007a7a0                rumpns_igmp_fasttimo
                0x000000000007a8b0                rumpns_igmp_slowtimo
                0x000000000007a920                rumpns_igmp_purgeif
 .text          0x000000000007a9d0      0x18a librumpnet_net_pic.a(net_stats.pico)
                0x000000000007aa10                rumpns_netstat_sysctl
 *fill*         0x000000000007ab5a        0x6 90909090
 .text          0x000000000007ab60       0x80 librumpnet_net_pic.a(in_cksum.pico)
                0x000000000007ab60                rumpns_in_cksum
 .text          0x000000000007abe0      0x345 librumpnet_net_pic.a(cpu_in_cksum.pico)
                0x000000000007abe0                rumpns_cpu_in_cksum
 *fill*         0x000000000007af25        0xb 90909090
 .text          0x000000000007af30      0x284 librumpnet_net_pic.a(uipc_syscalls_50.pico)
                0x000000000007af30                rumpns_compat_ifdatareq
 *fill*         0x000000000007b1b4        0xc 90909090
 .text          0x000000000007b1c0      0x5f7 librumpnet_net_pic.a(if_43.pico)
                0x000000000007b1c0                rumpns_compat_cvtcmd
                0x000000000007b670                rumpns_compat_ifioctl
 *fill*         0x000000000007b7b7        0x9 90909090
 .text          0x000000000007b7c0     0x1280 librumpnet_net_pic.a(link_proto.pico)
                0x000000000007c350                rumpns_sockaddr_dl_measure
                0x000000000007c360                rumpns_sockaddr_dl_init
                0x000000000007c8c0                rumpns_sockaddr_dl_alloc
                0x000000000007c990                rumpns_sockaddr_dl_setaddr
 .text          0x000000000007ca40     0x36cd librumpnet_net_pic.a(rtsock_50.pico)
                0x000000000007eca0                rumpns_compat_50_rt_msg1
                0x000000000007efd0                rumpns_compat_50_route_enqueue
                0x000000000007f080                rumpns_compat_50_rt_ieee80211msg
                0x000000000007f200                rumpns_compat_50_rt_ifannouncemsg
                0x000000000007f260                rumpns_compat_50_rt_newaddrmsg
                0x000000000007f580                rumpns_compat_50_rt_missmsg
                0x000000000007f6b0                rumpns_compat_50_rt_oifmsg
                0x000000000007f900                rumpns_compat_50_rt_ifmsg
                0x000000000007f9f0                rumpns_compat_50_iflist
 *fill*         0x000000000008010d        0x3 90909090
 .text          0x0000000000080110     0x32fc librumpnet_net_pic.a(rtsock.pico)
                0x00000000000828a0                rumpns_rt_msg1
                0x0000000000082bd0                rumpns_route_enqueue
                0x0000000000082c80                rumpns_rt_ieee80211msg
                0x0000000000082e00                rumpns_rt_ifannouncemsg
                0x0000000000082e90                rumpns_rt_newaddrmsg
                0x00000000000831d0                rumpns_rt_ifmsg
                0x00000000000832b0                rumpns_rt_missmsg
 *fill*         0x000000000008340c        0x4 90909090
 .text          0x0000000000083410      0x871 librumpnet_net_pic.a(raw_usrreq.pico)
                0x0000000000083410                rumpns_raw_init
                0x0000000000083430                rumpns_raw_input
                0x0000000000083790                rumpns_raw_ctlinput
                0x00000000000837a0                rumpns_raw_setsockaddr
                0x00000000000837e0                rumpns_raw_setpeeraddr
                0x0000000000083820                rumpns_raw_send
                0x0000000000083970                rumpns_raw_usrreq
 *fill*         0x0000000000083c81        0xf 90909090
 .text          0x0000000000083c90      0x259 librumpnet_net_pic.a(raw_cb.pico)
                0x0000000000083c90                rumpns_raw_attach
                0x0000000000083db0                rumpns_raw_detach
                0x0000000000083ec0                rumpns_raw_disconnect
 *fill*         0x0000000000083ee9        0x7 90909090
 .text          0x0000000000083ef0     0x35d5 librumpnet_net_pic.a(route.pico)
                0x0000000000084280                rumpns_rt_init
                0x0000000000084360                rumpns_rt_maskedcopy
                0x00000000000844f0                rumpns_rt_replace_ifa
                0x0000000000084580                rumpns_rt_get_ifa
                0x00000000000845e0                rumpns_rt_timer_init
                0x00000000000846a0                rumpns_rt_timer_queue_create
                0x00000000000847a0                rumpns_rt_timer_queue_change
                0x00000000000847b0                rumpns_rt_timer_count
                0x00000000000847c0                rumpns_rt_timer_add
                0x00000000000849c0                rumpns_rtcache_invalidate
                0x0000000000084b40                rumpns_rtflushall
                0x0000000000084b80                rumpns_rt_settag
                0x0000000000084be0                rumpns_rt_gettag
                0x0000000000084bf0                rumpns_rtfree
                0x0000000000084d70                rumpns_rtcache_clear
                0x0000000000084e30                rumpns_rtcache_free
                0x0000000000084ed0                rumpns_rtcache_setdst
                0x0000000000085140                rumpns_rtcache_copy
                0x00000000000854a0                rumpns_rt_setgate
                0x00000000000857b0                rumpns_rtrequest1
                0x0000000000086090                rumpns_rtrequest
                0x00000000000860f0                rumpns_rt_timer_timer
                0x0000000000086280                rumpns_rt_timer_remove_all
                0x00000000000863a0                rumpns_rt_timer_queue_remove_all
                0x00000000000864a0                rumpns_rt_timer_queue_destroy
                0x0000000000086500                rumpns_rtalloc1
                0x0000000000086930                rumpns_rtcache_lookup2
                0x0000000000086bc0                rumpns_rtcache_update
                0x0000000000086c10                rumpns_rtcache_init_noclone
                0x0000000000086c20                rumpns_rtcache_init
                0x0000000000086c30                rumpns_ifa_ifwithroute
                0x0000000000086d10                rumpns_rt_getifa
                0x0000000000086e60                rumpns_rtinit
                0x00000000000871c0                rumpns_rtredirect
 *fill*         0x00000000000874c5        0xb 90909090
 .text          0x00000000000874d0     0x434e librumpnet_net_pic.a(if.pico)
                0x0000000000087500                rumpns_if_nulloutput
                0x0000000000087510                rumpns_if_nullinput
                0x0000000000087520                rumpns_if_nullstart
                0x0000000000087530                rumpns_if_nullinit
                0x0000000000087540                rumpns_if_nullstop
                0x0000000000087550                rumpns_if_nullslowtimo
                0x0000000000087560                rumpns_if_nulldrain
                0x0000000000087590                rumpns_sysctl_net_sdl_setup
                0x0000000000087640                rumpns_if_nullioctl
                0x0000000000088160                rumpns_ifinit
                0x00000000000881c0                rumpns_ifinit1
                0x0000000000088280                rumpns_if_alloc
                0x00000000000882b0                rumpns_if_free
                0x00000000000882e0                rumpns_if_initname
                0x0000000000088330                rumpns_if_dl_create
                0x0000000000088460                rumpns_if_register
                0x0000000000088900                rumpns_if_attachdomain
                0x0000000000088950                rumpns_if_deactivate
                0x00000000000889f0                rumpns_if_purgeaddrs
                0x0000000000088a40                rumpns_if_clone_attach
                0x0000000000088a80                rumpns_if_clone_detach
                0x0000000000088ac0                rumpns_ifaref
                0x0000000000088ad0                rumpns_ifafree
                0x0000000000088c40                rumpns_if_activate_sadl
                0x0000000000088ce0                rumpns_ifa_insert
                0x0000000000088d20                rumpns_ifa_remove
                0x0000000000088f90                rumpns_if_alloc_sadl
                0x0000000000089020                rumpns_if_set_sadl
                0x00000000000890b0                rumpns_ifa_ifwithaddr
                0x0000000000089160                rumpns_ifa_ifwithdstaddr
                0x0000000000089200                rumpns_ifa_ifwithnet
                0x0000000000089380                rumpns_ifa_ifwithladdr
                0x00000000000893d0                rumpns_ifa_ifwithaf
                0x0000000000089430                rumpns_ifaof_ifpforaddr
                0x0000000000089580                rumpns_link_rtrequest
                0x0000000000089630                rumpns_if_link_state_change
                0x0000000000089700                rumpns_if_down
                0x00000000000897f0                rumpns_if_detach
                0x0000000000089d60                rumpns_if_up
                0x0000000000089dd0                rumpns_ifioctl_common
                0x000000000008a1e0                rumpns_ifunit
                0x000000000008aba0                rumpns_if_byindex
                0x000000000008ac80                rumpns_if_initialize
                0x000000000008af60                rumpns_if_attach
                0x000000000008afa0                rumpns_ifaddrpref_ioctl
                0x000000000008b1c0                rumpns_ifreq_setaddr
                0x000000000008b330                rumpns_ifq_enqueue
                0x000000000008b460                rumpns_ifq_enqueue2
                0x000000000008b580                rumpns_if_addr_init
                0x000000000008b600                rumpns_if_flags_set
                0x000000000008b6e0                rumpns_ifpromisc
                0x000000000008b770                rumpns_if_mcast_op
 *fill*         0x000000000008b81e        0x2 90909090
 .text          0x000000000008b820      0x524 librumpnet_net_pic.a(pfil.pico)
                0x000000000008b820                rumpns_pfil_head_destroy
                0x000000000008b880                rumpns_pfil_head_get
                0x000000000008b8c0                rumpns_pfil_head_create
                0x000000000008b960                rumpns_pfil_remove_hook
                0x000000000008ba40                rumpns_pfil_add_hook
                0x000000000008bc20                rumpns_pfil_run_hooks
 *fill*         0x000000000008bd44        0xc 90909090
 .text          0x000000000008bd50       0x38 /usr/local/genode-gcc/bin/../lib/gcc/x86_64-elf/4.7.4/32/crtend.o
 *(.gnu.warning)

.fini           0x000000000008bd88        0x5
 *(.fini)
 .fini          0x000000000008bd88        0x5 /usr/local/genode-gcc/bin/../lib/gcc/x86_64-elf/4.7.4/32/crtbegin.o
                0x000000000008bd8d                PROVIDE (__etext, .)
                0x000000000008bd8d                PROVIDE (_etext, .)
                0x000000000008bd8d                PROVIDE (etext, .)

.rodata         0x000000000008bda0     0x8008
 *(.rodata .rodata.* .gnu.linkonce.r.*)
 .rodata.str1.4
                0x000000000008bda0       0xcc librumpnet_net_pic.a(mpls_proto.pico)
 .rodata.str1.1
                0x000000000008be6c      0x1d2 librumpnet_net_pic.a(mpls_proto.pico)
                                        0x1ea (size before relaxing)
 *fill*         0x000000000008c03e        0x2 00
 .rodata.str1.4
                0x000000000008c040      0x12e librumpnet_net_pic.a(udp6_usrreq.pico)
                                        0x162 (size before relaxing)
 .rodata.str1.1
                0x000000000008c16e       0xd0 librumpnet_net_pic.a(udp6_usrreq.pico)
                                        0x251 (size before relaxing)
 *fill*         0x000000000008c23e        0x2 00
 .rodata.str1.4
                0x000000000008c240      0x11e librumpnet_net_pic.a(udp6_output.pico)
                                        0x152 (size before relaxing)
 .rodata.str1.1
                0x0000000000000000        0xc librumpnet_net_pic.a(udp6_output.pico)
 *fill*         0x000000000008c35e        0x2 00
 .rodata.str1.4
                0x000000000008c360       0x5e librumpnet_net_pic.a(scope6.pico)
 .rodata.str1.1
                0x000000000008c3be       0x26 librumpnet_net_pic.a(scope6.pico)
                                         0x30 (size before relaxing)
 .rodata        0x000000000008c3e4       0x50 librumpnet_net_pic.a(scope6.pico)
 .rodata.str1.1
                0x0000000000000000       0x17 librumpnet_net_pic.a(route6.pico)
 .rodata.str1.4
                0x000000000008c434       0x95 librumpnet_net_pic.a(raw_ip6.pico)
                                        0x15e (size before relaxing)
 .rodata.str1.1
                0x000000000008c4c9       0x11 librumpnet_net_pic.a(raw_ip6.pico)
                                        0x1dd (size before relaxing)
 *fill*         0x000000000008c4da        0x2 00
 .rodata        0x000000000008c4dc      0x228 librumpnet_net_pic.a(raw_ip6.pico)
 .rodata.str1.4
                0x000000000008c704      0x967 librumpnet_net_pic.a(nd6_rtr.pico)
 .rodata.str1.1
                0x0000000000000000       0x17 librumpnet_net_pic.a(nd6_rtr.pico)
 *fill*         0x000000000008d06b        0x1 00
 .rodata.str1.4
                0x000000000008d06c      0x6f4 librumpnet_net_pic.a(nd6_nbr.pico)
 .rodata.str1.1
                0x000000000008d760       0x5f librumpnet_net_pic.a(nd6_nbr.pico)
                                         0x76 (size before relaxing)
 .rodata.str1.1
                0x000000000008d7bf       0xda librumpnet_net_pic.a(nd6.pico)
 *fill*         0x000000000008d899        0x3 00
 .rodata.str1.4
                0x000000000008d89c      0x3a5 librumpnet_net_pic.a(nd6.pico)
 *fill*         0x000000000008dc41        0x3 00
 .rodata        0x000000000008dc44       0x6b librumpnet_net_pic.a(nd6.pico)
 .rodata.str1.1
                0x000000000008dcaf       0x25 librumpnet_net_pic.a(mld6.pico)
                                         0x4e (size before relaxing)
 .rodata.str1.4
                0x000000000008dcd4       0xdd librumpnet_net_pic.a(mld6.pico)
                                        0x111 (size before relaxing)
 *fill*         0x000000000008ddb1        0x3 00
 .rodata.str1.4
                0x000000000008ddb4      0x205 librumpnet_net_pic.a(ip6_output.pico)
                                        0x319 (size before relaxing)
 .rodata.str1.1
                0x000000000008dfb9       0x2c librumpnet_net_pic.a(ip6_output.pico)
                                         0x38 (size before relaxing)
 *fill*         0x000000000008dfe5        0x3 00
 .rodata        0x000000000008dfe8      0x47c librumpnet_net_pic.a(ip6_output.pico)
 .rodata.str1.4
                0x000000000008e464       0x85 librumpnet_net_pic.a(ip6_mroute.pico)
                                        0x22d (size before relaxing)
 .rodata.str1.1
                0x000000000008e4e9       0x2a librumpnet_net_pic.a(ip6_mroute.pico)
                                         0x7c (size before relaxing)
 *fill*         0x000000000008e513        0x1 00
 .rodata        0x000000000008e514       0x40 librumpnet_net_pic.a(ip6_mroute.pico)
 .rodata.str1.4
                0x000000000008e554      0x108 librumpnet_net_pic.a(ip6_input.pico)
                                        0x1d0 (size before relaxing)
 .rodata.str1.1
                0x000000000008e65c      0x223 librumpnet_net_pic.a(ip6_input.pico)
                                        0x283 (size before relaxing)
 *fill*         0x000000000008e87f        0x1 00
 .rodata        0x000000000008e880      0x109 librumpnet_net_pic.a(ip6_input.pico)
                0x000000000008e974                rumpns_inet6ctlerrmap
 .rodata.str1.1
                0x000000000008e989       0x5b librumpnet_net_pic.a(ip6_forward.pico)
                                         0x69 (size before relaxing)
 .rodata.str1.4
                0x000000000008e9e4       0x30 librumpnet_net_pic.a(ip6_forward.pico)
                                        0x144 (size before relaxing)
 .rodata.str1.4
                0x0000000000000000      0x114 librumpnet_net_pic.a(ip6_flow.pico)
 .rodata.str1.1
                0x000000000008ea14        0xa librumpnet_net_pic.a(ip6_flow.pico)
                                         0x16 (size before relaxing)
 .rodata.str1.1
                0x000000000008ea1e        0xa librumpnet_net_pic.a(in6_proto.pico)
 .rodata        0x000000000008ea28       0x1c librumpnet_net_pic.a(in6_proto.pico)
 .rodata.str1.4
                0x000000000008ea44       0x93 librumpnet_net_pic.a(frag6.pico)
                                         0xc8 (size before relaxing)
 .rodata.str1.1
                0x000000000008ead7       0x19 librumpnet_net_pic.a(frag6.pico)
                                         0x3c (size before relaxing)
 .rodata.str1.1
                0x0000000000000000       0x17 librumpnet_net_pic.a(dest6.pico)
 .rodata.str1.1
                0x000000000008eaf0        0x9 librumpnet_net_pic.a(in6_pcb.pico)
                                         0x15 (size before relaxing)
 *fill*         0x000000000008eaf9        0x3 00
 .rodata.str1.4
                0x000000000008eafc       0xc0 librumpnet_net_pic.a(in6_pcb.pico)
                                        0x1d4 (size before relaxing)
 .rodata.str1.4
                0x000000000008ebbc      0x37b librumpnet_net_pic.a(in6_ifattach.pico)
 .rodata.str1.1
                0x0000000000000000        0x9 librumpnet_net_pic.a(in6_ifattach.pico)
                                          0xf (size before relaxing)
 .rodata        0x000000000008ef37        0xc librumpnet_net_pic.a(in6_ifattach.pico)
 *fill*         0x000000000008ef43        0x1 00
 .rodata.str1.4
                0x000000000008ef44      0x456 librumpnet_net_pic.a(in6.pico)
 .rodata.str1.1
                0x000000000008f39a        0xb librumpnet_net_pic.a(in6.pico)
 *fill*         0x000000000008f3a5        0x3 00
 .rodata        0x000000000008f3a8       0xc4 librumpnet_net_pic.a(in6.pico)
                0x000000000008f3a8                rumpns_sa6_any
                0x000000000008f3c4                rumpns_in6mask128
                0x000000000008f3d4                rumpns_in6mask96
                0x000000000008f3e4                rumpns_in6mask64
                0x000000000008f3f4                rumpns_in6mask32
                0x000000000008f404                rumpns_in6mask0
                0x000000000008f414                rumpns_in6addr_linklocal_allrouters
                0x000000000008f424                rumpns_in6addr_linklocal_allnodes
                0x000000000008f434                rumpns_in6addr_nodelocal_allnodes
                0x000000000008f444                rumpns_in6addr_loopback
                0x000000000008f454                rumpns_in6addr_any
 .rodata.str1.1
                0x000000000008f46c      0x111 librumpnet_net_pic.a(icmp6.pico)
                                        0x161 (size before relaxing)
 *fill*         0x000000000008f57d        0x3 00
 .rodata.str1.4
                0x000000000008f580      0x41b librumpnet_net_pic.a(icmp6.pico)
                                        0x4e4 (size before relaxing)
 *fill*         0x000000000008f99b        0x1 00
 .rodata        0x000000000008f99c      0x264 librumpnet_net_pic.a(icmp6.pico)
 .rodata.str1.4
                0x000000000008fc00       0xba librumpnet_net_pic.a(udp_usrreq.pico)
                                        0x182 (size before relaxing)
 .rodata.str1.1
                0x000000000008fcba       0x7c librumpnet_net_pic.a(udp_usrreq.pico)
                                        0x268 (size before relaxing)
 *fill*         0x000000000008fd36        0x2 00
 .rodata.str1.4
                0x000000000008fd38      0x1e3 librumpnet_net_pic.a(tcp_vtw.pico)
                                        0x217 (size before relaxing)
 .rodata.str1.1
                0x000000000008ff1b      0x145 librumpnet_net_pic.a(tcp_vtw.pico)
                                        0x15d (size before relaxing)
 .rodata        0x0000000000090060       0x91 librumpnet_net_pic.a(tcp_vtw.pico)
 *fill*         0x00000000000900f1        0x3 00
 .rodata.str1.4
                0x00000000000900f4       0x97 librumpnet_net_pic.a(tcp_usrreq.pico)
                                        0x15e (size before relaxing)
 .rodata.str1.1
                0x000000000009018b      0x1f3 librumpnet_net_pic.a(tcp_usrreq.pico)
                                        0x3f8 (size before relaxing)
 *fill*         0x000000000009037e        0x2 00
 .rodata        0x0000000000090380       0x9e librumpnet_net_pic.a(tcp_usrreq.pico)
 *fill*         0x000000000009041e        0x2 00
 .rodata.str1.4
                0x0000000000090420       0x96 librumpnet_net_pic.a(tcp_timer.pico)
                                         0xcc (size before relaxing)
 .rodata.str1.1
                0x00000000000904b6        0xb librumpnet_net_pic.a(tcp_timer.pico)
                                         0x17 (size before relaxing)
 *fill*         0x00000000000904c1       0x1f 00
 .rodata        0x00000000000904e0       0x54 librumpnet_net_pic.a(tcp_timer.pico)
                0x00000000000904e0                rumpns_tcp_totbackoff
                0x0000000000090500                rumpns_tcp_backoff
 .rodata.str1.4
                0x0000000000090534      0x331 librumpnet_net_pic.a(tcp_subr.pico)
                                        0x4d9 (size before relaxing)
 .rodata.str1.1
                0x0000000000090865       0xa3 librumpnet_net_pic.a(tcp_subr.pico)
                                         0xdb (size before relaxing)
 *fill*         0x0000000000090908       0x18 00
 .rodata        0x0000000000090920       0xbc librumpnet_net_pic.a(tcp_subr.pico)
 .rodata.str1.1
                0x00000000000909dc       0x6a librumpnet_net_pic.a(tcp_output.pico)
                                         0x99 (size before relaxing)
 *fill*         0x0000000000090a46        0x2 00
 .rodata.str1.4
                0x0000000000090a48      0x19d librumpnet_net_pic.a(tcp_output.pico)
                                        0x42a (size before relaxing)
 *fill*         0x0000000000090be5       0x1b 00
 .rodata        0x0000000000090c00       0x7c librumpnet_net_pic.a(tcp_output.pico)
                0x0000000000090c00                rumpns_tcp_outflags
 .rodata.str1.1
                0x0000000000090c7c       0x2c librumpnet_net_pic.a(tcp_congctl.pico)
                                         0x3f (size before relaxing)
 .rodata.str1.4
                0x0000000000090ca8       0x98 librumpnet_net_pic.a(tcp_congctl.pico)
                                         0xcc (size before relaxing)
 .rodata.str1.4
                0x0000000000090d40      0x1f0 librumpnet_net_pic.a(tcp_input.pico)
                                        0x4a2 (size before relaxing)
 .rodata.str1.1
                0x0000000000090f30       0x8b librumpnet_net_pic.a(tcp_input.pico)
                                         0xf3 (size before relaxing)
 *fill*         0x0000000000090fbb        0x1 00
 .rodata        0x0000000000090fbc       0x24 librumpnet_net_pic.a(tcp_input.pico)
 .rodata.str1.1
                0x0000000000090fe0       0x21 librumpnet_net_pic.a(tcp_sack.pico)
                                         0x2d (size before relaxing)
 *fill*         0x0000000000091001        0x3 00
 .rodata.str1.4
                0x0000000000091004       0x95 librumpnet_net_pic.a(tcp_sack.pico)
                                         0xcc (size before relaxing)
 .rodata.str1.1
                0x0000000000091099      0x105 librumpnet_net_pic.a(if_arp.pico)
                                        0x11a (size before relaxing)
 *fill*         0x000000000009119e        0x2 00
 .rodata.str1.4
                0x00000000000911a0      0x2cb librumpnet_net_pic.a(if_arp.pico)
 .rodata        0x000000000009146b        0xe librumpnet_net_pic.a(if_arp.pico)
 *fill*         0x0000000000091479        0x3 00
 .rodata.str1.4
                0x000000000009147c       0x95 librumpnet_net_pic.a(portalgo.pico)
                                         0xcc (size before relaxing)
 .rodata.str1.1
                0x0000000000091511       0x48 librumpnet_net_pic.a(portalgo.pico)
                                         0x5b (size before relaxing)
 .rodata.str1.1
                0x0000000000091559       0x36 librumpnet_net_pic.a(ip_encap.pico)
 *fill*         0x000000000009158f        0x1 00
 .rodata.str1.4
                0x0000000000091590       0x93 librumpnet_net_pic.a(raw_ip.pico)
                                        0x15a (size before relaxing)
 .rodata.str1.1
                0x0000000000091623       0x24 librumpnet_net_pic.a(raw_ip.pico)
                                        0x20a (size before relaxing)
 *fill*         0x0000000000091647        0x1 00
 .rodata.str1.4
                0x0000000000091648      0x2b7 librumpnet_net_pic.a(ip_output.pico)
                                        0x3cb (size before relaxing)
 .rodata.str1.1
                0x00000000000918ff       0x30 librumpnet_net_pic.a(ip_output.pico)
                                         0x3c (size before relaxing)
 *fill*         0x000000000009192f        0x1 00
 .rodata        0x0000000000091930      0x1ac librumpnet_net_pic.a(ip_output.pico)
 .rodata.str1.4
                0x0000000000091adc       0x95 librumpnet_net_pic.a(ip_reass.pico)
                                         0xcc (size before relaxing)
 .rodata.str1.1
                0x0000000000091b71       0x38 librumpnet_net_pic.a(ip_reass.pico)
                                         0x58 (size before relaxing)
 *fill*         0x0000000000091ba9        0x3 00
 .rodata.str1.4
                0x0000000000091bac      0x1ad librumpnet_net_pic.a(ip_input.pico)
                                        0x2c1 (size before relaxing)
 .rodata.str1.1
                0x0000000000091d59       0xac librumpnet_net_pic.a(ip_input.pico)
                                        0x17d (size before relaxing)
 *fill*         0x0000000000091e05       0x1b 00
 .rodata        0x0000000000091e20       0x54 librumpnet_net_pic.a(ip_input.pico)
                0x0000000000091e20                rumpns_inetctlerrmap
 .rodata.str1.1
                0x0000000000091e74        0x8 librumpnet_net_pic.a(in_pcb.pico)
                                         0x14 (size before relaxing)
 .rodata.str1.4
                0x0000000000091e7c       0x68 librumpnet_net_pic.a(in_pcb.pico)
                                        0x17c (size before relaxing)
 .rodata.str1.4
                0x0000000000000000      0x114 librumpnet_net_pic.a(ip_flow.pico)
 .rodata.str1.1
                0x0000000000091ee4        0x9 librumpnet_net_pic.a(ip_flow.pico)
                                         0x1d (size before relaxing)
 *fill*         0x0000000000091eed        0x3 00
 .rodata.str1.4
                0x0000000000091ef0      0x138 librumpnet_net_pic.a(ip_icmp.pico)
                                        0x16c (size before relaxing)
 .rodata.str1.1
                0x0000000000092028       0x50 librumpnet_net_pic.a(ip_icmp.pico)
                                         0x8c (size before relaxing)
 *fill*         0x0000000000092078        0x8 00
 .rodata        0x0000000000092080       0xb8 librumpnet_net_pic.a(ip_icmp.pico)
 .rodata.str1.1
                0x0000000000092138        0x9 librumpnet_net_pic.a(in_proto.pico)
 *fill*         0x0000000000092141        0x1 00
 .rodata        0x0000000000092142       0x10 librumpnet_net_pic.a(in_proto.pico)
                0x0000000000092142                rumpns_in_any
 .rodata.str1.1
                0x0000000000092152      0x157 librumpnet_net_pic.a(ip_carp.pico)
                                        0x187 (size before relaxing)
 *fill*         0x00000000000922a9        0x3 00
 .rodata.str1.4
                0x00000000000922ac      0x196 librumpnet_net_pic.a(ip_carp.pico)
                                        0x1ca (size before relaxing)
 .rodata.str1.1
                0x0000000000092442       0x1d librumpnet_net_pic.a(if_ethersubr.pico)
                                         0x45 (size before relaxing)
 *fill*         0x000000000009245f        0x1 00
 .rodata.str1.4
                0x0000000000092460       0xec librumpnet_net_pic.a(if_ethersubr.pico)
                                        0x120 (size before relaxing)
 *fill*         0x000000000009254c       0x14 00
 .rodata        0x0000000000092560       0xe0 librumpnet_net_pic.a(if_ethersubr.pico)
                0x00000000000925dc                rumpns_ether_ip6multicast_max
                0x00000000000925e2                rumpns_ether_ip6multicast_min
                0x00000000000925e8                rumpns_ether_ipmulticast_max
                0x00000000000925ee                rumpns_ether_ipmulticast_min
                0x00000000000925f4                rumpns_ethermulticastaddr_slowprotocols
                0x00000000000925fa                rumpns_etherbroadcastaddr
 .rodata.str1.4
                0x0000000000092640       0x89 librumpnet_net_pic.a(if_media.pico)
 .rodata.str1.1
                0x00000000000926c9       0x13 librumpnet_net_pic.a(if_media.pico)
 *fill*         0x00000000000926dc        0x4 00
 .rodata        0x00000000000926e0      0x204 librumpnet_net_pic.a(if_media.pico)
 .rodata.str1.4
                0x00000000000928e4       0xe2 librumpnet_net_pic.a(if_loop.pico)
                                        0x116 (size before relaxing)
 .rodata.str1.1
                0x00000000000929c6       0x1c librumpnet_net_pic.a(if_loop.pico)
                                         0x51 (size before relaxing)
 *fill*         0x00000000000929e2        0x2 00
 .rodata.str1.4
                0x00000000000929e4      0x191 librumpnet_net_pic.a(in6_offload.pico)
                                        0x1c5 (size before relaxing)
 .rodata.str1.1
                0x0000000000092b75       0x77 librumpnet_net_pic.a(in6_offload.pico)
                                         0xa0 (size before relaxing)
 .rodata.str1.4
                0x0000000000092bec       0x56 librumpnet_net_pic.a(in6_cksum.pico)
 *fill*         0x0000000000092c42        0x2 00
 .rodata.str1.4
                0x0000000000092c44       0xc5 librumpnet_net_pic.a(in_offload.pico)
                                        0x154 (size before relaxing)
 .rodata.str1.1
                0x0000000000092d09       0x47 librumpnet_net_pic.a(in_offload.pico)
                                         0xcb (size before relaxing)
 .rodata.str1.4
                0x0000000000092d50       0x52 librumpnet_net_pic.a(in4_cksum.pico)
 .rodata        0x0000000000092da2        0xa librumpnet_net_pic.a(in4_cksum.pico)
 .rodata.str1.1
                0x0000000000092dac       0x68 librumpnet_net_pic.a(in.pico)
                                         0x7c (size before relaxing)
 .rodata.str1.4
                0x0000000000092e14       0xb5 librumpnet_net_pic.a(in.pico)
                                         0xe9 (size before relaxing)
 *fill*         0x0000000000092ec9        0x3 00
 .rodata.str1.4
                0x0000000000092ecc       0x91 librumpnet_net_pic.a(igmp.pico)
                                         0xc8 (size before relaxing)
 .rodata.str1.1
                0x0000000000092f5d       0x21 librumpnet_net_pic.a(igmp.pico)
                                         0x52 (size before relaxing)
 *fill*         0x0000000000092f7e        0x2 00
 .rodata        0x0000000000092f80       0x18 librumpnet_net_pic.a(igmp.pico)
 .rodata.str1.4
                0x0000000000092f98       0x95 librumpnet_net_pic.a(in_cksum.pico)
                                         0xcc (size before relaxing)
 .rodata.str1.1
                0x0000000000000000       0x21 librumpnet_net_pic.a(in_cksum.pico)
                                         0x15 (size before relaxing)
 *fill*         0x000000000009302d        0x3 00
 .rodata.str1.4
                0x0000000000093030       0x99 librumpnet_net_pic.a(cpu_in_cksum.pico)
                                         0xd0 (size before relaxing)
 .rodata.str1.1
                0x00000000000930c9       0x20 librumpnet_net_pic.a(cpu_in_cksum.pico)
                                         0x35 (size before relaxing)
 *fill*         0x00000000000930e9        0x3 00
 .rodata.str1.4
                0x00000000000930ec       0x93 librumpnet_net_pic.a(link_proto.pico)
                                         0xc8 (size before relaxing)
 .rodata.str1.1
                0x000000000009317f       0x17 librumpnet_net_pic.a(link_proto.pico)
                                        0x193 (size before relaxing)
 .rodata        0x0000000000093196       0x25 librumpnet_net_pic.a(link_proto.pico)
 *fill*         0x00000000000931bb        0x1 00
 .rodata.str1.4
                0x00000000000931bc       0x8f librumpnet_net_pic.a(rtsock_50.pico)
                                         0xc4 (size before relaxing)
 .rodata.str1.1
                0x000000000009324b       0xcd librumpnet_net_pic.a(rtsock_50.pico)
                                        0x259 (size before relaxing)
 .rodata        0x0000000000093318      0x1bd librumpnet_net_pic.a(rtsock_50.pico)
 .rodata.str1.4
                0x0000000000000000       0xc4 librumpnet_net_pic.a(rtsock.pico)
 .rodata.str1.1
                0x00000000000934d5        0xd librumpnet_net_pic.a(rtsock.pico)
                                        0x243 (size before relaxing)
 *fill*         0x00000000000934e2        0x2 00
 .rodata        0x00000000000934e4      0x1a9 librumpnet_net_pic.a(rtsock.pico)
 *fill*         0x000000000009368d        0x3 00
 .rodata.str1.4
                0x0000000000093690       0x93 librumpnet_net_pic.a(raw_usrreq.pico)
                                        0x15a (size before relaxing)
 .rodata.str1.1
                0x0000000000093723        0xb librumpnet_net_pic.a(raw_usrreq.pico)
                                        0x1bb (size before relaxing)
 *fill*         0x000000000009372e        0x2 00
 .rodata.str1.4
                0x0000000000093730       0x8f librumpnet_net_pic.a(raw_cb.pico)
                                         0xc4 (size before relaxing)
 .rodata.str1.1
                0x0000000000000000       0x40 librumpnet_net_pic.a(raw_cb.pico)
 *fill*         0x00000000000937bf        0x1 00
 .rodata.str1.4
                0x00000000000937c0      0x189 librumpnet_net_pic.a(route.pico)
                                        0x29d (size before relaxing)
 .rodata.str1.1
                0x0000000000093949       0xf9 librumpnet_net_pic.a(route.pico)
                                        0x111 (size before relaxing)
 .rodata.str1.1
                0x0000000000093a42      0x10e librumpnet_net_pic.a(if.pico)
                                        0x19b (size before relaxing)
 .rodata.str1.4
                0x0000000000093b50      0x178 librumpnet_net_pic.a(if.pico)
                                        0x1ac (size before relaxing)
 .rodata        0x0000000000093cc8       0x1d librumpnet_net_pic.a(if.pico)
 *fill*         0x0000000000093ce5        0x3 00
 .rodata.str1.4
                0x0000000000093ce8       0x90 librumpnet_net_pic.a(pfil.pico)
                                         0xc4 (size before relaxing)
 .rodata.str1.1
                0x0000000000093d78       0x20 librumpnet_net_pic.a(pfil.pico)
                                         0x2c (size before relaxing)
 .rodata        0x0000000000093d98       0x10 librumpnet_net_pic.a(pfil.pico)

.rodata1
 *(.rodata1)

.eh_frame_hdr   0x0000000000093da8     0x219c
 *(.eh_frame_hdr)
 .eh_frame_hdr  0x0000000000093da8     0x219c /usr/local/genode-gcc/bin/../lib/gcc/x86_64-elf/4.7.4/32/crtbegin.o

.eh_frame       0x0000000000095f44     0xc228
 *(.eh_frame)
 .eh_frame      0x0000000000095f44       0x3c /usr/local/genode-gcc/bin/../lib/gcc/x86_64-elf/4.7.4/32/crtbegin.o
                                         0x40 (size before relaxing)
 .eh_frame      0x0000000000095f80      0x300 librumpnet_net_pic.a(mpls_proto.pico)
                                        0x32c (size before relaxing)
 .eh_frame      0x0000000000096280       0x60 librumpnet_net_pic.a(net_component.pico)
                                         0x8c (size before relaxing)
 .eh_frame      0x00000000000962e0      0x4e4 librumpnet_net_pic.a(udp6_usrreq.pico)
                                        0x510 (size before relaxing)
 .eh_frame      0x00000000000967c4       0x2c librumpnet_net_pic.a(udp6_output.pico)
                                         0x58 (size before relaxing)
 .eh_frame      0x00000000000967f0      0x29c librumpnet_net_pic.a(scope6.pico)
                                        0x2c8 (size before relaxing)
 .eh_frame      0x0000000000096a8c       0x2c librumpnet_net_pic.a(route6.pico)
                                         0x58 (size before relaxing)
 .eh_frame      0x0000000000096ab8      0x4c0 librumpnet_net_pic.a(raw_ip6.pico)
                                        0x4ec (size before relaxing)
 .eh_frame      0x0000000000096f78      0x4f4 librumpnet_net_pic.a(nd6_rtr.pico)
                                        0x520 (size before relaxing)
 .eh_frame      0x000000000009746c      0x2b8 librumpnet_net_pic.a(nd6_nbr.pico)
                                        0x2e4 (size before relaxing)
 .eh_frame      0x0000000000097724      0x538 librumpnet_net_pic.a(nd6.pico)
                                        0x578 (size before relaxing)
 .eh_frame      0x0000000000097c5c      0x3a8 librumpnet_net_pic.a(mld6.pico)
                                        0x3e8 (size before relaxing)
 .eh_frame      0x0000000000098004      0x3cc librumpnet_net_pic.a(ip6_output.pico)
                                        0x3f8 (size before relaxing)
 .eh_frame      0x00000000000983d0      0x2c8 librumpnet_net_pic.a(ip6_mroute.pico)
                                        0x2f4 (size before relaxing)
 .eh_frame      0x0000000000098698      0x3c0 librumpnet_net_pic.a(ip6_input.pico)
                                        0x3ec (size before relaxing)
 .eh_frame      0x0000000000098a58       0x78 librumpnet_net_pic.a(ip6_forward.pico)
                                         0xa4 (size before relaxing)
 .eh_frame      0x0000000000098ad0      0x270 librumpnet_net_pic.a(ip6_flow.pico)
                                        0x29c (size before relaxing)
 .eh_frame      0x0000000000098d40      0x180 librumpnet_net_pic.a(in6_src.pico)
                                        0x1c0 (size before relaxing)
 .eh_frame      0x0000000000098ec0      0x134 librumpnet_net_pic.a(in6_proto.pico)
                                        0x174 (size before relaxing)
 .eh_frame      0x0000000000098ff4      0x1d8 librumpnet_net_pic.a(frag6.pico)
                                        0x218 (size before relaxing)
 .eh_frame      0x00000000000991cc       0x6c librumpnet_net_pic.a(dest6.pico)
                                         0x98 (size before relaxing)
 .eh_frame      0x0000000000099238      0x400 librumpnet_net_pic.a(in6_pcb.pico)
                                        0x42c (size before relaxing)
 .eh_frame      0x0000000000099638      0x1c8 librumpnet_net_pic.a(in6_ifattach.pico)
                                        0x1f4 (size before relaxing)
 .eh_frame      0x0000000000099800      0x5d0 librumpnet_net_pic.a(in6.pico)
                                        0x5fc (size before relaxing)
 .eh_frame      0x0000000000099dd0      0x390 librumpnet_net_pic.a(icmp6.pico)
                                        0x3bc (size before relaxing)
 .eh_frame      0x000000000009a160      0x524 librumpnet_net_pic.a(udp_usrreq.pico)
                                        0x550 (size before relaxing)
 .eh_frame      0x000000000009a684      0x4c8 librumpnet_net_pic.a(tcp_vtw.pico)
                                        0x4f4 (size before relaxing)
 .eh_frame      0x000000000009ab4c      0x668 librumpnet_net_pic.a(tcp_usrreq.pico)
                                        0x694 (size before relaxing)
 .eh_frame      0x000000000009b1b4      0x140 librumpnet_net_pic.a(tcp_timer.pico)
                                        0x16c (size before relaxing)
 .eh_frame      0x000000000009b2f4      0x5f8 librumpnet_net_pic.a(tcp_subr.pico)
                                        0x638 (size before relaxing)
 .eh_frame      0x000000000009b8ec       0xb4 librumpnet_net_pic.a(ip6_id.pico)
                                         0xf4 (size before relaxing)
 .eh_frame      0x000000000009b9a0       0x80 librumpnet_net_pic.a(tcp_output.pico)
                                         0xac (size before relaxing)
 .eh_frame      0x000000000009ba20      0x3bc librumpnet_net_pic.a(tcp_congctl.pico)
                                        0x3e8 (size before relaxing)
 .eh_frame      0x000000000009bddc      0x53c librumpnet_net_pic.a(tcp_input.pico)
                                        0x568 (size before relaxing)
 .eh_frame      0x000000000009c318      0x198 librumpnet_net_pic.a(tcp_sack.pico)
                                        0x1c4 (size before relaxing)
 .eh_frame      0x000000000009c4b0      0x404 librumpnet_net_pic.a(if_arp.pico)
                                        0x444 (size before relaxing)
 .eh_frame      0x000000000009c8b4      0x3a0 librumpnet_net_pic.a(portalgo.pico)
                                        0x3cc (size before relaxing)
 .eh_frame      0x000000000009cc54      0x24c librumpnet_net_pic.a(ip_encap.pico)
                                        0x278 (size before relaxing)
 .eh_frame      0x000000000009cea0      0x4d8 librumpnet_net_pic.a(raw_ip.pico)
                                        0x504 (size before relaxing)
 .eh_frame      0x000000000009d378      0x2b0 librumpnet_net_pic.a(ip_output.pico)
                                        0x2dc (size before relaxing)
 .eh_frame      0x000000000009d628      0x18c librumpnet_net_pic.a(ip_reass.pico)
                                        0x1b8 (size before relaxing)
 .eh_frame      0x000000000009d7b4      0x274 librumpnet_net_pic.a(ip_input.pico)
                                        0x2b4 (size before relaxing)
 .eh_frame      0x000000000009da28       0x84 librumpnet_net_pic.a(ip_id.pico)
                                         0xb0 (size before relaxing)
 .eh_frame      0x000000000009daac      0x42c librumpnet_net_pic.a(in_pcb.pico)
                                        0x458 (size before relaxing)
 .eh_frame      0x000000000009ded8      0x254 librumpnet_net_pic.a(ip_flow.pico)
                                        0x280 (size before relaxing)
 .eh_frame      0x000000000009e12c      0x310 librumpnet_net_pic.a(ip_icmp.pico)
                                        0x33c (size before relaxing)
 .eh_frame      0x000000000009e43c      0x12c librumpnet_net_pic.a(in_proto.pico)
                                        0x158 (size before relaxing)
 .eh_frame      0x000000000009e568      0x65c librumpnet_net_pic.a(ip_carp.pico)
                                        0x688 (size before relaxing)
 .eh_frame      0x000000000009ebc4      0x3a4 librumpnet_net_pic.a(if_ethersubr.pico)
                                        0x3d0 (size before relaxing)
 .eh_frame      0x000000000009ef68      0x1c8 librumpnet_net_pic.a(if_media.pico)
                                        0x1f4 (size before relaxing)
 .eh_frame      0x000000000009f130       0xdc librumpnet_net_pic.a(if_loop.pico)
                                        0x108 (size before relaxing)
 .eh_frame      0x000000000009f20c       0xc8 librumpnet_net_pic.a(in6_offload.pico)
                                         0xf4 (size before relaxing)
 .eh_frame      0x000000000009f2d4       0x40 librumpnet_net_pic.a(in6_cksum.pico)
                                         0x6c (size before relaxing)
 .eh_frame      0x000000000009f314       0xcc librumpnet_net_pic.a(in_offload.pico)
                                         0xf8 (size before relaxing)
 .eh_frame      0x000000000009f3e0       0x2c librumpnet_net_pic.a(in4_cksum.pico)
                                         0x58 (size before relaxing)
 .eh_frame      0x000000000009f40c      0x3fc librumpnet_net_pic.a(in.pico)
                                        0x428 (size before relaxing)
 .eh_frame      0x000000000009f808      0x1ac librumpnet_net_pic.a(igmp.pico)
                                        0x1d8 (size before relaxing)
 .eh_frame      0x000000000009f9b4       0x54 librumpnet_net_pic.a(net_stats.pico)
                                         0x80 (size before relaxing)
 .eh_frame      0x000000000009fa08       0x24 librumpnet_net_pic.a(in_cksum.pico)
                                         0x50 (size before relaxing)
 .eh_frame      0x000000000009fa2c       0x40 librumpnet_net_pic.a(cpu_in_cksum.pico)
                                         0x6c (size before relaxing)
 .eh_frame      0x000000000009fa6c       0x2c librumpnet_net_pic.a(uipc_syscalls_50.pico)
                                         0x58 (size before relaxing)
 .eh_frame      0x000000000009fa98       0x40 librumpnet_net_pic.a(if_43.pico)
                                         0x6c (size before relaxing)
 .eh_frame      0x000000000009fad8      0x39c librumpnet_net_pic.a(link_proto.pico)
                                        0x3c8 (size before relaxing)
 .eh_frame      0x000000000009fe74      0x710 librumpnet_net_pic.a(rtsock_50.pico)
                                        0x73c (size before relaxing)
 .eh_frame      0x00000000000a0584      0x674 librumpnet_net_pic.a(rtsock.pico)
                                        0x6a0 (size before relaxing)
 .eh_frame      0x00000000000a0bf8      0x110 librumpnet_net_pic.a(raw_usrreq.pico)
                                        0x150 (size before relaxing)
 .eh_frame      0x00000000000a0d08       0x78 librumpnet_net_pic.a(raw_cb.pico)
                                         0xa4 (size before relaxing)
 .eh_frame      0x00000000000a0d80      0x6d8 librumpnet_net_pic.a(route.pico)
                                        0x704 (size before relaxing)
 .eh_frame      0x00000000000a1458      0xbc4 librumpnet_net_pic.a(if.pico)
                                        0xc04 (size before relaxing)
 .eh_frame      0x00000000000a201c      0x14c librumpnet_net_pic.a(pfil.pico)
                                        0x178 (size before relaxing)
 .eh_frame      0x00000000000a2168        0x4 /usr/local/genode-gcc/bin/../lib/gcc/x86_64-elf/4.7.4/32/crtend.o

.gcc_except_table
 *(.gcc_except_table .gcc_except_table.*)

.exception_ranges
 *(.exception_ranges .exception_ranges*)
                0x00000000000a216c                . = (ALIGN (0x1000) - ((0x1000 - .) & 0xfff))
                0x00000000000a3000                . = DATA_SEGMENT_ALIGN (0x1000, 0x1000)

.eh_frame
 *(.eh_frame)

.gcc_except_table
 *(.gcc_except_table .gcc_except_table.*)

.exception_ranges
 *(.exception_ranges .exception_ranges*)

.tdata
 *(.tdata .tdata.* .gnu.linkonce.td.*)

.tbss
 *(.tbss .tbss.* .gnu.linkonce.tb.*)
 *(.tcommon)

.preinit_array
 *(.preinit_array)

.init_array
 *(SORT(.init_array.*))
 *(.init_array)

.fini_array
 *(SORT(.fini_array.*))
 *(.fini_array)

.ctors          0x00000000000a3000        0x8
 *crtbegin.o(.ctors)
 .ctors         0x00000000000a3000        0x4 /usr/local/genode-gcc/bin/../lib/gcc/x86_64-elf/4.7.4/32/crtbegin.o
 *crtbegin?.o(.ctors)
 *(EXCLUDE_FILE(*crtend?.o *crtend.o) .ctors)
 *(SORT(.ctors.*))
 *(.ctors)
 .ctors         0x00000000000a3004        0x4 /usr/local/genode-gcc/bin/../lib/gcc/x86_64-elf/4.7.4/32/crtend.o

.dtors          0x00000000000a3008        0x8
 *crtbegin.o(.dtors)
 .dtors         0x00000000000a3008        0x4 /usr/local/genode-gcc/bin/../lib/gcc/x86_64-elf/4.7.4/32/crtbegin.o
 *crtbegin?.o(.dtors)
 *(EXCLUDE_FILE(*crtend?.o *crtend.o) .dtors)
 *(SORT(.dtors.*))
 *(.dtors)
 .dtors         0x00000000000a300c        0x4 /usr/local/genode-gcc/bin/../lib/gcc/x86_64-elf/4.7.4/32/crtend.o
                0x00000000000a300c                __DTOR_END__

.jcr            0x00000000000a3010        0x4
 *(.jcr)
 .jcr           0x00000000000a3010        0x0 /usr/local/genode-gcc/bin/../lib/gcc/x86_64-elf/4.7.4/32/crtbegin.o
 .jcr           0x00000000000a3010        0x4 /usr/local/genode-gcc/bin/../lib/gcc/x86_64-elf/4.7.4/32/crtend.o

.data.rel.ro    0x00000000000a3020      0xa50
 *(.data.rel.ro.local* .gnu.linkonce.d.rel.ro.local.*)
 .data.rel.ro.local
                0x00000000000a3020       0x50 librumpnet_net_pic.a(mpls_proto.pico)
 *fill*         0x00000000000a3070       0x10 00
 .data.rel.ro.local
                0x00000000000a3080       0x50 librumpnet_net_pic.a(udp6_usrreq.pico)
                0x00000000000a3080                rumpns_udp6_usrreqs
 *fill*         0x00000000000a30d0       0x10 00
 .data.rel.ro.local
                0x00000000000a30e0       0x50 librumpnet_net_pic.a(raw_ip6.pico)
                0x00000000000a30e0                rumpns_rip6_usrreqs
 *fill*         0x00000000000a3130       0x10 00
 .data.rel.ro.local
                0x00000000000a3140       0x50 librumpnet_net_pic.a(udp_usrreq.pico)
                0x00000000000a3140                rumpns_udp_usrreqs
 *fill*         0x00000000000a3190       0x10 00
 .data.rel.ro.local
                0x00000000000a31a0       0x50 librumpnet_net_pic.a(tcp_usrreq.pico)
                0x00000000000a31a0                rumpns_tcp_usrreqs
 .data.rel.ro.local
                0x00000000000a31f0       0x3c librumpnet_net_pic.a(tcp_congctl.pico)
                0x00000000000a31f0                rumpns_tcp_cubic_ctl
                0x00000000000a3204                rumpns_tcp_newreno_ctl
                0x00000000000a3218                rumpns_tcp_reno_ctl
 *fill*         0x00000000000a322c       0x14 00
 .data.rel.ro.local
                0x00000000000a3240       0x30 librumpnet_net_pic.a(portalgo.pico)
 *fill*         0x00000000000a3270       0x10 00
 .data.rel.ro.local
                0x00000000000a3280       0x50 librumpnet_net_pic.a(raw_ip.pico)
                0x00000000000a3280                rumpns_rip_usrreqs
 .data.rel.ro.local
                0x00000000000a32d0        0xc librumpnet_net_pic.a(ip_carp.pico)
 *fill*         0x00000000000a32dc        0x4 00
 .data.rel.ro.local
                0x00000000000a32e0       0x50 librumpnet_net_pic.a(link_proto.pico)
 *fill*         0x00000000000a3330       0x10 00
 .data.rel.ro.local
                0x00000000000a3340       0x50 librumpnet_net_pic.a(rtsock_50.pico)
 *fill*         0x00000000000a3390       0x10 00
 .data.rel.ro.local
                0x00000000000a33a0       0x50 librumpnet_net_pic.a(rtsock.pico)
 *(.data.rel.ro* .gnu.linkonce.d.rel.ro.*)
 *fill*         0x00000000000a33f0       0x10 00
 .data.rel.ro   0x00000000000a3400       0x90 librumpnet_net_pic.a(mpls_proto.pico)
                0x00000000000a3400                rumpns_mplssw
 *fill*         0x00000000000a3490       0x10 00
 .data.rel.ro   0x00000000000a34a0      0x2a0 librumpnet_net_pic.a(in6_proto.pico)
                0x00000000000a34a0                rumpns_inet6sw
 .data.rel.ro   0x00000000000a3740       0x10 librumpnet_net_pic.a(tcp_timer.pico)
                0x00000000000a3740                rumpns_tcp_timer_funcs
 *fill*         0x00000000000a3750       0x10 00
 .data.rel.ro   0x00000000000a3760       0x30 librumpnet_net_pic.a(if_arp.pico)
                0x00000000000a3760                rumpns_arpsw
 *fill*         0x00000000000a3790       0x10 00
 .data.rel.ro   0x00000000000a37a0      0x210 librumpnet_net_pic.a(in_proto.pico)
                0x00000000000a37a0                rumpns_inetsw
 *fill*         0x00000000000a39b0       0x10 00
 .data.rel.ro   0x00000000000a39c0       0x30 librumpnet_net_pic.a(link_proto.pico)
                0x00000000000a39c0                rumpns_linksw
 *fill*         0x00000000000a39f0       0x10 00
 .data.rel.ro   0x00000000000a3a00       0x30 librumpnet_net_pic.a(rtsock_50.pico)
 *fill*         0x00000000000a3a30       0x10 00
 .data.rel.ro   0x00000000000a3a40       0x30 librumpnet_net_pic.a(rtsock.pico)

.dynamic        0x00000000000a3a70       0xb8
 *(.dynamic)
 .dynamic       0x00000000000a3a70       0xb8 /usr/local/genode-gcc/bin/../lib/gcc/x86_64-elf/4.7.4/32/crtbegin.o
                0x00000000000a3a70                _DYNAMIC

.got            0x00000000000a3b28      0x550
 *(.got)
 .got           0x00000000000a3b28      0x550 /usr/local/genode-gcc/bin/../lib/gcc/x86_64-elf/4.7.4/32/crtbegin.o
 *(.igot)
                0x00000000000a4078                . = DATA_SEGMENT_RELRO_END (., 0xc)

.got.plt        0x00000000000a4078      0xa9c
 *(.got.plt)
 .got.plt       0x00000000000a4078      0xa9c /usr/local/genode-gcc/bin/../lib/gcc/x86_64-elf/4.7.4/32/crtbegin.o
                0x00000000000a4078                _GLOBAL_OFFSET_TABLE_
 *(.igot.plt)

.data           0x00000000000a4b40      0xd74
 *(.data .data.* .gnu.linkonce.d.*)
 .data          0x00000000000a4b40        0x4 /usr/local/genode-gcc/bin/../lib/gcc/x86_64-elf/4.7.4/32/crtbegin.o
                0x00000000000a4b40                __dso_handle
 .data          0x00000000000a4b44       0x18 librumpnet_net_pic.a(mpls_proto.pico)
                0x00000000000a4b44                rumpns_mpls_rfc4182
                0x00000000000a4b48                rumpns_mpls_mapclass_inet6
                0x00000000000a4b4c                rumpns_mpls_mapprec_inet
                0x00000000000a4b50                rumpns_mpls_mapttl_inet6
                0x00000000000a4b54                rumpns_mpls_mapttl_inet
                0x00000000000a4b58                rumpns_mpls_defttl
 *fill*         0x00000000000a4b5c        0x4 00
 .data.rel      0x00000000000a4b60       0x88 librumpnet_net_pic.a(mpls_proto.pico)
                0x00000000000a4b60                rumpns_mplsdomain
 .data          0x00000000000a4be8        0x0 librumpnet_net_pic.a(net_component.pico)
 .data.rel.local
                0x00000000000a4be8       0x30 librumpnet_net_pic.a(net_component.pico)
 .data          0x00000000000a4c18        0x8 librumpnet_net_pic.a(udp6_usrreq.pico)
 .data          0x00000000000a4c20        0x0 librumpnet_net_pic.a(udp6_output.pico)
 .data          0x00000000000a4c20        0x0 librumpnet_net_pic.a(scope6.pico)
 .data          0x00000000000a4c20        0x0 librumpnet_net_pic.a(route6.pico)
 .data          0x00000000000a4c20        0x0 librumpnet_net_pic.a(raw_ip6.pico)
 .data          0x00000000000a4c20        0xc librumpnet_net_pic.a(nd6_rtr.pico)
                0x00000000000a4c20                rumpns_ip6_temp_regen_advance
                0x00000000000a4c24                rumpns_ip6_temp_valid_lifetime
                0x00000000000a4c28                rumpns_ip6_temp_preferred_lifetime
 .data          0x00000000000a4c2c        0x0 librumpnet_net_pic.a(nd6_nbr.pico)
 .data          0x00000000000a4c2c       0x24 librumpnet_net_pic.a(nd6.pico)
                0x00000000000a4c2c                rumpns_nd6_recalc_reachtm_interval
                0x00000000000a4c30                rumpns_nd6_maxqueuelen
                0x00000000000a4c34                rumpns_nd6_maxndopt
                0x00000000000a4c38                rumpns_nd6_gctimer
                0x00000000000a4c3c                rumpns_nd6_useloopback
                0x00000000000a4c40                rumpns_nd6_mmaxtries
                0x00000000000a4c44                rumpns_nd6_umaxtries
                0x00000000000a4c48                rumpns_nd6_delay
                0x00000000000a4c4c                rumpns_nd6_prune
 *fill*         0x00000000000a4c50       0x10 00
 .data.rel      0x00000000000a4c60       0x4c librumpnet_net_pic.a(nd6.pico)
                0x00000000000a4c60                rumpns_llinfo_nd6
 .data          0x00000000000a4cac        0x0 librumpnet_net_pic.a(mld6.pico)
 .data          0x00000000000a4cac        0x0 librumpnet_net_pic.a(ip6_output.pico)
 .data          0x00000000000a4cac        0x6 librumpnet_net_pic.a(ip6_mroute.pico)
                0x00000000000a4cac                rumpns_ip6_mrtproto
 *fill*         0x00000000000a4cb2        0x2 00
 .data          0x00000000000a4cb4        0x0 librumpnet_net_pic.a(ip6_input.pico)
 .data.read_mostly
                0x00000000000a4cb4        0x4 librumpnet_net_pic.a(ip6_input.pico)
                0x00000000000a4cb4                rumpns_ip6_pktq
 .data          0x00000000000a4cb8        0x0 librumpnet_net_pic.a(ip6_forward.pico)
 .data          0x00000000000a4cb8        0x8 librumpnet_net_pic.a(ip6_flow.pico)
                0x00000000000a4cb8                rumpns_ip6_hashsize
                0x00000000000a4cbc                rumpns_ip6_maxflows
 .data          0x00000000000a4cc0        0x0 librumpnet_net_pic.a(in6_src.pico)
 .data          0x00000000000a4cc0       0x60 librumpnet_net_pic.a(in6_proto.pico)
                0x00000000000a4cc0                rumpns_icmp6_nodeinfo
                0x00000000000a4cc4                rumpns_icmp6errppslim
                0x00000000000a4cc8                rumpns_icmp6_redirtimeout
                0x00000000000a4ccc                rumpns_icmp6_rediraccept
                0x00000000000a4cd0                rumpns_rip6_recvspace
                0x00000000000a4cd4                rumpns_rip6_sendspace
                0x00000000000a4cd8                rumpns_pmtu_expire
                0x00000000000a4cdc                rumpns_ip6_rtadv_maxroutes
                0x00000000000a4ce0                rumpns_ip6_maxdynroutes
                0x00000000000a4ce4                rumpns_ip6_maxifdefrouters
                0x00000000000a4ce8                rumpns_ip6_maxifprefixes
                0x00000000000a4cec                rumpns_ip6_neighborgcthresh
                0x00000000000a4cf0                rumpns_ip6_v6only
                0x00000000000a4cf4                rumpns_ip6_rr_prune
                0x00000000000a4cf8                rumpns_ip6_use_deprecated
                0x00000000000a4cfc                rumpns_ip6_auto_flowlabel
                0x00000000000a4d00                rumpns_ip6_dad_count
                0x00000000000a4d04                rumpns_ip6_hdrnestlimit
                0x00000000000a4d08                rumpns_ip6_log_interval
                0x00000000000a4d0c                rumpns_ip6_maxfrags
                0x00000000000a4d10                rumpns_ip6_maxfragpackets
                0x00000000000a4d14                rumpns_ip6_defmcasthlim
                0x00000000000a4d18                rumpns_ip6_defhlim
                0x00000000000a4d1c                rumpns_ip6_sendredirects
 .data.rel      0x00000000000a4d20       0x88 librumpnet_net_pic.a(in6_proto.pico)
                0x00000000000a4d20                rumpns_inet6domain
 .data          0x00000000000a4da8        0x0 librumpnet_net_pic.a(frag6.pico)
 .data          0x00000000000a4da8        0x0 librumpnet_net_pic.a(dest6.pico)
 .data          0x00000000000a4da8       0x10 librumpnet_net_pic.a(in6_pcb.pico)
                0x00000000000a4da8                rumpns_ip6_lowportmax
                0x00000000000a4dac                rumpns_ip6_lowportmin
                0x00000000000a4db0                rumpns_ip6_anonportmax
                0x00000000000a4db4                rumpns_ip6_anonportmin
 .data          0x00000000000a4db8        0xc librumpnet_net_pic.a(in6_ifattach.pico)
                0x00000000000a4db8                rumpns_ip6_auto_linklocal
 .data          0x00000000000a4dc4        0x0 librumpnet_net_pic.a(in6.pico)
 .data          0x00000000000a4dc4        0x8 librumpnet_net_pic.a(icmp6.pico)
 .data          0x00000000000a4dcc       0x10 librumpnet_net_pic.a(udp_usrreq.pico)
                0x00000000000a4dcc                rumpns_udbhashsize
                0x00000000000a4dd0                rumpns_udpcksum
 .data          0x00000000000a4ddc        0x0 librumpnet_net_pic.a(tcp_vtw.pico)
 .data.rel.local
                0x00000000000a4ddc       0x18 librumpnet_net_pic.a(tcp_vtw.pico)
 .data          0x00000000000a4df4        0x8 librumpnet_net_pic.a(tcp_usrreq.pico)
                0x00000000000a4df4                rumpns_tcp_recvspace
                0x00000000000a4df8                rumpns_tcp_sendspace
 .data          0x00000000000a4dfc        0x0 librumpnet_net_pic.a(tcp_timer.pico)
 *fill*         0x00000000000a4dfc        0x4 00
 .data          0x00000000000a4e00      0x2c4 librumpnet_net_pic.a(tcp_subr.pico)
                0x00000000000a4e00                rumpns_tcp_syn_bucket_limit
                0x00000000000a4e04                rumpns_tcp_syn_cache_limit
                0x00000000000a4e08                rumpns_tcp_syn_cache_size
                0x00000000000a4e0c                rumpns_tcbhashsize
                0x00000000000a4e10                rumpns_tcp_vtw_entries
                0x00000000000a4e14                rumpns_tcp_msl_remote_threshold
                0x00000000000a4e18                rumpns_tcp_msl_remote
                0x00000000000a4e1c                rumpns_tcp_msl_local
                0x00000000000a4e20                rumpns_tcp_msl_loop
                0x00000000000a4e24                rumpns_tcp_msl_enable
                0x00000000000a4e28                rumpns_tcp_ecn_maxretries
                0x00000000000a4e2c                rumpns_tcp_sack_globalmaxholes
                0x00000000000a4e30                rumpns_tcp_sack_tp_maxholes
                0x00000000000a4e34                rumpns_tcp_abc_aggressive
                0x00000000000a4e38                rumpns_tcp_do_abc
                0x00000000000a4e3c                rumpns_tcp_ackdrop_ppslim
                0x00000000000a4e40                rumpns_tcp_rst_ppslim
                0x00000000000a4e44                rumpns_tcp_init_win_local
                0x00000000000a4e48                rumpns_tcp_init_win
                0x00000000000a4e60                rumpns_tcp_init_win_max
                0x00000000000a4e8c                rumpns_tcp_do_timestamps
                0x00000000000a4e90                rumpns_tcp_do_win_scale
                0x00000000000a4e94                rumpns_tcp_do_sack
                0x00000000000a4e98                rumpns_tcp_do_rfc1323
                0x00000000000a4e9c                rumpns_tcp_rttdflt
                0x00000000000a4ea0                rumpns_tcp_minmss
                0x00000000000a4ea4                rumpns_tcp_mssdflt
 *fill*         0x00000000000a50c4       0x1c 00
 .data          0x00000000000a50e0       0xb0 librumpnet_net_pic.a(ip6_id.pico)
 .data          0x00000000000a5190       0x10 librumpnet_net_pic.a(tcp_output.pico)
                0x00000000000a5190                rumpns_tcp_autosndbuf_max
                0x00000000000a5194                rumpns_tcp_autosndbuf_inc
                0x00000000000a5198                rumpns_tcp_do_autosndbuf
                0x00000000000a519c                rumpns_tcp_cwm_burstsize
 .data          0x00000000000a51a0        0x0 librumpnet_net_pic.a(tcp_congctl.pico)
 .data.rel      0x00000000000a51a0        0x8 librumpnet_net_pic.a(tcp_congctl.pico)
                0x00000000000a51a0                rumpns_tcp_congctlhd
 .data          0x00000000000a51a8       0x14 librumpnet_net_pic.a(tcp_input.pico)
                0x00000000000a51a8                rumpns_tcp_msl
                0x00000000000a51ac                rumpns_tcp_autorcvbuf_max
                0x00000000000a51b0                rumpns_tcp_autorcvbuf_inc
                0x00000000000a51b4                rumpns_tcp_do_autorcvbuf
                0x00000000000a51b8                rumpns_tcprexmtthresh
 .data          0x00000000000a51bc        0x0 librumpnet_net_pic.a(tcp_sack.pico)
 .data          0x00000000000a51bc       0x40 librumpnet_net_pic.a(if_arp.pico)
                0x00000000000a51bc                rumpns_useloopback
                0x00000000000a51c0                rumpns_arp_maxtries
                0x00000000000a51c4                rumpns_arpintrq
                0x00000000000a51dc                rumpns_arpt_refresh
                0x00000000000a51e0                rumpns_arpt_down
                0x00000000000a51e4                rumpns_arpt_keep
                0x00000000000a51e8                rumpns_arpt_prune
 *fill*         0x00000000000a51fc        0x4 00
 .data.rel      0x00000000000a5200       0x88 librumpnet_net_pic.a(if_arp.pico)
                0x00000000000a5200                rumpns_arpdomain
 .data          0x00000000000a5288        0x8 librumpnet_net_pic.a(portalgo.pico)
 .data          0x00000000000a5290        0x0 librumpnet_net_pic.a(ip_encap.pico)
 .data          0x00000000000a5290        0x0 librumpnet_net_pic.a(raw_ip.pico)
 .data          0x00000000000a5290        0x0 librumpnet_net_pic.a(ip_output.pico)
 .data          0x00000000000a5290        0x0 librumpnet_net_pic.a(ip_reass.pico)
 .data          0x00000000000a5290       0x2c librumpnet_net_pic.a(ip_input.pico)
                0x00000000000a5290                rumpns_ipaddr
                0x00000000000a52a0                rumpns_ip_mtudisc_timeout
                0x00000000000a52a4                rumpns_ip_mtudisc
                0x00000000000a52a8                rumpns_ip_allowsrcrt
                0x00000000000a52ac                rumpns_ip_forwsrcrt
                0x00000000000a52b0                rumpns_ip_defttl
                0x00000000000a52b4                rumpns_ipsendredirects
                0x00000000000a52b8                rumpns_ipforwarding
 .data.read_mostly
                0x00000000000a52bc       0x14 librumpnet_net_pic.a(ip_input.pico)
                0x00000000000a52bc                rumpns_ipstat_percpu
                0x00000000000a52c0                rumpns_ip_ids
                0x00000000000a52c4                rumpns_inet_pfil_hook
                0x00000000000a52c8                rumpns_ip_pktq
 *fill*         0x00000000000a52d0       0x30 00
 .data.cacheline_aligned
                0x00000000000a5300       0x14 librumpnet_net_pic.a(ip_input.pico)
 .data          0x00000000000a5314        0x0 librumpnet_net_pic.a(ip_id.pico)
 .data          0x00000000000a5314       0x10 librumpnet_net_pic.a(in_pcb.pico)
                0x00000000000a5314                rumpns_lowportmax
                0x00000000000a5318                rumpns_lowportmin
                0x00000000000a531c                rumpns_anonportmax
                0x00000000000a5320                rumpns_anonportmin
 .data          0x00000000000a5324        0x4 librumpnet_net_pic.a(ip_flow.pico)
 .data          0x00000000000a5328       0x4c librumpnet_net_pic.a(ip_icmp.pico)
                0x00000000000a5328                rumpns_icmpmask
                0x00000000000a5338                rumpns_icmpsrc
                0x00000000000a5348                rumpns_icmpreturndatabytes
 .data          0x00000000000a5374        0x4 librumpnet_net_pic.a(in_proto.pico)
                0x00000000000a5374                rumpns_icmperrppslim
 *fill*         0x00000000000a5378        0x8 00
 .data.rel      0x00000000000a5380       0x88 librumpnet_net_pic.a(in_proto.pico)
                0x00000000000a5380                rumpns_inetdomain
 .data          0x00000000000a5408       0x28 librumpnet_net_pic.a(ip_carp.pico)
 .data.rel.local
                0x00000000000a5430       0x18 librumpnet_net_pic.a(ip_carp.pico)
                0x00000000000a5430                rumpns_carp_cloner
 .data          0x00000000000a5448        0x0 librumpnet_net_pic.a(if_ethersubr.pico)
 *fill*         0x00000000000a5448       0x38 00
 .data.cacheline_aligned
                0x00000000000a5480        0x4 librumpnet_net_pic.a(if_ethersubr.pico)
 .data          0x00000000000a5484        0x0 librumpnet_net_pic.a(if_media.pico)
 .data          0x00000000000a5484        0x0 librumpnet_net_pic.a(if_loop.pico)
 .data.rel.local
                0x00000000000a5484       0x18 librumpnet_net_pic.a(if_loop.pico)
 .data          0x00000000000a549c        0x0 librumpnet_net_pic.a(in6_offload.pico)
 .data          0x00000000000a549c        0x0 librumpnet_net_pic.a(in6_cksum.pico)
 .data          0x00000000000a549c        0x0 librumpnet_net_pic.a(in_offload.pico)
 .data          0x00000000000a549c        0x0 librumpnet_net_pic.a(in4_cksum.pico)
 .data          0x00000000000a549c        0x8 librumpnet_net_pic.a(in.pico)
 .data          0x00000000000a54a4        0x0 librumpnet_net_pic.a(igmp.pico)
 *fill*         0x00000000000a54a4       0x1c 00
 .data.cacheline_aligned
                0x00000000000a54c0      0x144 librumpnet_net_pic.a(igmp.pico)
 .data.read_mostly
                0x00000000000a5604        0x4 librumpnet_net_pic.a(igmp.pico)
 .data          0x00000000000a5608        0x0 librumpnet_net_pic.a(net_stats.pico)
 .data          0x00000000000a5608        0x0 librumpnet_net_pic.a(in_cksum.pico)
 .data          0x00000000000a5608        0x0 librumpnet_net_pic.a(cpu_in_cksum.pico)
 .data          0x00000000000a5608        0x0 librumpnet_net_pic.a(uipc_syscalls_50.pico)
 .data          0x00000000000a5608        0x0 librumpnet_net_pic.a(if_43.pico)
 .data          0x00000000000a5608        0x0 librumpnet_net_pic.a(link_proto.pico)
 *fill*         0x00000000000a5608       0x18 00
 .data.rel      0x00000000000a5620       0x88 librumpnet_net_pic.a(link_proto.pico)
                0x00000000000a5620                rumpns_linkdomain
 *fill*         0x00000000000a56a8       0x18 00
 .data          0x00000000000a56c0       0x54 librumpnet_net_pic.a(rtsock_50.pico)
                0x00000000000a56c0                rumpns_compat_50_route_info
 *fill*         0x00000000000a5714        0xc 00
 .data.rel.local
                0x00000000000a5720       0x88 librumpnet_net_pic.a(rtsock_50.pico)
                0x00000000000a5720                rumpns_compat_50_routedomain
 *fill*         0x00000000000a57a8       0x18 00
 .data          0x00000000000a57c0       0x54 librumpnet_net_pic.a(rtsock.pico)
                0x00000000000a57c0                rumpns_route_info
 *fill*         0x00000000000a5814        0xc 00
 .data.rel.local
                0x00000000000a5820       0x88 librumpnet_net_pic.a(rtsock.pico)
                0x00000000000a5820                rumpns_routedomain
 .data          0x00000000000a58a8        0x0 librumpnet_net_pic.a(raw_usrreq.pico)
 .data          0x00000000000a58a8        0x0 librumpnet_net_pic.a(raw_cb.pico)
 .data          0x00000000000a58a8        0x0 librumpnet_net_pic.a(route.pico)
 .data          0x00000000000a58a8        0x8 librumpnet_net_pic.a(if.pico)
                0x00000000000a58a8                rumpns_ifqmaxlen
 .data          0x00000000000a58b0        0x0 librumpnet_net_pic.a(pfil.pico)
 .data.read_mostly
                0x00000000000a58b0        0x4 librumpnet_net_pic.a(pfil.pico)
 .data          0x00000000000a58b4        0x0 /usr/local/genode-gcc/bin/../lib/gcc/x86_64-elf/4.7.4/32/crtend.o

.tm_clone_table
                0x00000000000a58b4        0x0
 .tm_clone_table
                0x00000000000a58b4        0x0 /usr/local/genode-gcc/bin/../lib/gcc/x86_64-elf/4.7.4/32/crtbegin.o
 .tm_clone_table
                0x00000000000a58b4        0x0 /usr/local/genode-gcc/bin/../lib/gcc/x86_64-elf/4.7.4/32/crtend.o

link_set_domains
                0x00000000000a58b4       0x1c
                0x00000000000a58b4                . = ALIGN (0x4)
                0x00000000000a58b4                PROVIDE (__start_link_set_domains, ABSOLUTE (.))
 link_set_domains
                0x00000000000a58b4        0x4 librumpnet_net_pic.a(mpls_proto.pico)
 link_set_domains
                0x00000000000a58b8        0x4 librumpnet_net_pic.a(in6_proto.pico)
 link_set_domains
                0x00000000000a58bc        0x4 librumpnet_net_pic.a(if_arp.pico)
 link_set_domains
                0x00000000000a58c0        0x4 librumpnet_net_pic.a(in_proto.pico)
 link_set_domains
                0x00000000000a58c4        0x4 librumpnet_net_pic.a(link_proto.pico)
 link_set_domains
                0x00000000000a58c8        0x4 librumpnet_net_pic.a(rtsock_50.pico)
 link_set_domains
                0x00000000000a58cc        0x4 librumpnet_net_pic.a(rtsock.pico)
                0x00000000000a58d0                PROVIDE (__stop_link_set_domains, .)

link_set_rump_components
                0x00000000000a58d0        0xc
                0x00000000000a58d0                . = ALIGN (0x4)
                0x00000000000a58d0                PROVIDE (__start_link_set_rump_components, ABSOLUTE (.))
 link_set_rump_components
                0x00000000000a58d0        0xc librumpnet_net_pic.a(net_component.pico)
                0x00000000000a58dc                PROVIDE (__stop_link_set_rump_components, .)

link_set_sysctl_funcs
                0x00000000000a58dc        0xc
                0x00000000000a58dc                . = ALIGN (0x4)
                0x00000000000a58dc                PROVIDE (__start_link_set_sysctl_funcs, ABSOLUTE (.))
 link_set_sysctl_funcs
                0x00000000000a58dc        0x4 librumpnet_net_pic.a(mld6.pico)
 link_set_sysctl_funcs
                0x00000000000a58e0        0x4 librumpnet_net_pic.a(if_ethersubr.pico)
 link_set_sysctl_funcs
                0x00000000000a58e4        0x4 librumpnet_net_pic.a(if.pico)
                0x00000000000a58e8                PROVIDE (__stop_link_set_sysctl_funcs, .)

.data1
 *(.data1)
                0x00000000000a58e8                _edata = .
                0x00000000000a58e8                PROVIDE (edata, .)
                0x00000000000a58e8                __bss_start = .

.bss            0x00000000000a5900     0x85c8
 *(.dynbss)
 .dynbss        0x0000000000000000        0x0 /usr/local/genode-gcc/bin/../lib/gcc/x86_64-elf/4.7.4/32/crtbegin.o
 *(.bss .bss.* .gnu.linkonce.b.*)
 .bss           0x00000000000a5900        0x8 /usr/local/genode-gcc/bin/../lib/gcc/x86_64-elf/4.7.4/32/crtbegin.o
 .bss           0x00000000000a5908        0xc librumpnet_net_pic.a(mpls_proto.pico)
                0x00000000000a5908                rumpns_mpls_frame_accept
                0x00000000000a590c                rumpns_mpls_forwarding
                0x00000000000a5910                rumpns_mpls_icmp_respond
 .bss           0x00000000000a5914        0x0 librumpnet_net_pic.a(net_component.pico)
 .bss           0x00000000000a5914        0x0 librumpnet_net_pic.a(udp6_usrreq.pico)
 .bss           0x00000000000a5914        0x0 librumpnet_net_pic.a(udp6_output.pico)
 *fill*         0x00000000000a5914        0xc 00
 .bss           0x00000000000a5920       0x60 librumpnet_net_pic.a(scope6.pico)
                0x00000000000a5920                rumpns_ip6_use_defzone
 .bss           0x00000000000a5980        0x0 librumpnet_net_pic.a(route6.pico)
 .bss           0x00000000000a5980        0x4 librumpnet_net_pic.a(raw_ip6.pico)
 .bss           0x00000000000a5984        0xc librumpnet_net_pic.a(nd6_rtr.pico)
                0x00000000000a5984                rumpns_nd6_numroutes
                0x00000000000a5988                rumpns_ip6_use_tempaddr
 .bss           0x00000000000a5990        0xc librumpnet_net_pic.a(nd6_nbr.pico)
 .bss           0x00000000000a599c       0x18 librumpnet_net_pic.a(nd6.pico)
                0x00000000000a599c                rumpns_nd_prefix
                0x00000000000a59a0                rumpns_nd6_debug
                0x00000000000a59a4                rumpns_nd6_maxnudhint
 *fill*         0x00000000000a59b4        0xc 00
 .bss           0x00000000000a59c0       0x74 librumpnet_net_pic.a(mld6.pico)
 .bss           0x00000000000a5a34        0x0 librumpnet_net_pic.a(ip6_output.pico)
 *fill*         0x00000000000a5a34        0xc 00
 .bss           0x00000000000a5a40       0x60 librumpnet_net_pic.a(ip6_mroute.pico)
                0x00000000000a5a40                rumpns_ip6_mrouter_ver
                0x00000000000a5a44                rumpns_ip6_mrouter
 .bss           0x00000000000a5aa0        0x0 librumpnet_net_pic.a(ip6_input.pico)
 .bss           0x00000000000a5aa0        0x0 librumpnet_net_pic.a(ip6_forward.pico)
 .bss           0x00000000000a5aa0       0xe4 librumpnet_net_pic.a(ip6_flow.pico)
 .bss           0x00000000000a5b84        0x0 librumpnet_net_pic.a(in6_src.pico)
 *fill*         0x00000000000a5b84        0x4 00
 .bss           0x00000000000a5b88       0x19 librumpnet_net_pic.a(in6_proto.pico)
                0x00000000000a5b88                rumpns_ip6_log_time
                0x00000000000a5b90                rumpns_ip6_keepfaith
                0x00000000000a5b94                rumpns_ip6_mcast_pmtu
                0x00000000000a5b98                rumpns_ip6_accept_rtadv
                0x00000000000a5b9c                rumpns_ip6_forwarding
                0x00000000000a5ba0                rumpns_in6_present
 *fill*         0x00000000000a5ba1        0x3 00
 .bss           0x00000000000a5ba4       0x1c librumpnet_net_pic.a(frag6.pico)
 .bss           0x00000000000a5bc0        0x0 librumpnet_net_pic.a(dest6.pico)
 .bss           0x00000000000a5bc0       0xf8 librumpnet_net_pic.a(in6_pcb.pico)
 .bss           0x00000000000a5cb8        0xc librumpnet_net_pic.a(in6_ifattach.pico)
                0x00000000000a5cb8                rumpns_in6_maxmtu
 *fill*         0x00000000000a5cc4       0x1c 00
 .bss           0x00000000000a5ce0      0x190 librumpnet_net_pic.a(in6.pico)
 *fill*         0x00000000000a5e70       0x10 00
 .bss           0x00000000000a5e80      0x420 librumpnet_net_pic.a(icmp6.pico)
                0x00000000000a5e80                rumpns_icmp6_mtudisc_callbacks
 .bss           0x00000000000a62a0        0xc librumpnet_net_pic.a(udp_usrreq.pico)
                0x00000000000a62a0                rumpns_udp_do_loopback_cksum
 *fill*         0x00000000000a62ac       0x14 00
 .bss           0x00000000000a62c0       0xa4 librumpnet_net_pic.a(tcp_vtw.pico)
 .bss           0x00000000000a6364        0x0 librumpnet_net_pic.a(tcp_usrreq.pico)
 .bss           0x00000000000a6364       0x18 librumpnet_net_pic.a(tcp_timer.pico)
                0x00000000000a6364                rumpns_tcp_delack_ticks
                0x00000000000a6368                rumpns_tcp_maxpersistidle
                0x00000000000a636c                rumpns_tcp_keepcnt
                0x00000000000a6370                rumpns_tcp_keepintvl
                0x00000000000a6374                rumpns_tcp_keepidle
                0x00000000000a6378                rumpns_tcp_keepinit
 *fill*         0x00000000000a637c        0x4 00
 .bss           0x00000000000a6380      0x11d librumpnet_net_pic.a(tcp_subr.pico)
                0x00000000000a6380                rumpns_tcp_iss_seq
                0x00000000000a6384                rumpns_tcp_vtw_was_enabled
                0x00000000000a6388                rumpns_tcp6_vtw_enable
                0x00000000000a638c                rumpns_tcp4_vtw_enable
                0x00000000000a6390                rumpns_tcp_rttlocal
                0x00000000000a6394                rumpns_tcp_sack_globalholes
                0x00000000000a6398                rumpns_tcp_do_loopback_cksum
                0x00000000000a639c                rumpns_tcp_compat_42
                0x00000000000a63a0                rumpns_tcp_mss_ifmtu
                0x00000000000a63a4                rumpns_tcp_do_ecn
                0x00000000000a63a8                rumpns_tcp_ack_on_push
                0x00000000000a63ac                rumpns_tcp_do_rfc1948
 *fill*         0x00000000000a649d        0x3 00
 .bss           0x00000000000a64a0        0x0 librumpnet_net_pic.a(ip6_id.pico)
 .bss           0x00000000000a64a0        0x4 librumpnet_net_pic.a(tcp_output.pico)
                0x00000000000a64a0                rumpns_tcp_cwm
 .bss           0x00000000000a64a4        0x8 librumpnet_net_pic.a(tcp_congctl.pico)
 *fill*         0x00000000000a64ac       0x14 00
 .bss           0x00000000000a64c0      0x1d8 librumpnet_net_pic.a(tcp_input.pico)
 *fill*         0x00000000000a6698        0x8 00
 .bss           0x00000000000a66a0       0xd8 librumpnet_net_pic.a(tcp_sack.pico)
 *fill*         0x00000000000a6778        0x8 00
 .bss           0x00000000000a6780       0xb0 librumpnet_net_pic.a(if_arp.pico)
                0x00000000000a6780                rumpns_myip_ifp
                0x00000000000a6784                rumpns_revarp_in_progress
                0x00000000000a6788                rumpns_myip_initialized
                0x00000000000a678c                rumpns_arpinit_done
 *fill*         0x00000000000a6830       0x10 00
 .bss           0x00000000000a6840     0x4080 librumpnet_net_pic.a(portalgo.pico)
 .bss           0x00000000000aa8c0        0x8 librumpnet_net_pic.a(ip_encap.pico)
                0x00000000000aa8c0                rumpns_encaptab
 .bss           0x00000000000aa8c8        0x0 librumpnet_net_pic.a(raw_ip.pico)
 .bss           0x00000000000aa8c8        0x4 librumpnet_net_pic.a(ip_output.pico)
                0x00000000000aa8c8                rumpns_ip_do_loopback_cksum
 *fill*         0x00000000000aa8cc       0x14 00
 .bss           0x00000000000aa8e0      0x240 librumpnet_net_pic.a(ip_reass.pico)
 .bss           0x00000000000aab20       0x54 librumpnet_net_pic.a(ip_input.pico)
                0x00000000000aab20                rumpns_ip_mtudisc_timeout_q
                0x00000000000aab24                rumpns_ip_do_randomid
                0x00000000000aab28                rumpns_ipprintfs
                0x00000000000aab2c                rumpns_ip_directedbcast
 .bss           0x00000000000aab74        0x0 librumpnet_net_pic.a(ip_id.pico)
 *fill*         0x00000000000aab74        0xc 00
 .bss           0x00000000000aab80       0xf8 librumpnet_net_pic.a(in_pcb.pico)
                0x00000000000aab80                rumpns_in_pcbnotifymiss
 *fill*         0x00000000000aac78        0x8 00
 .bss           0x00000000000aac80       0xe4 librumpnet_net_pic.a(ip_flow.pico)
 .bss           0x00000000000aad64       0x20 librumpnet_net_pic.a(ip_icmp.pico)
                0x00000000000aad64                rumpns_icmp_mtudisc_callbacks
                0x00000000000aad68                rumpns_icmpbmcastecho
                0x00000000000aad6c                rumpns_icmpmaskrepl
 .bss           0x00000000000aad84        0x0 librumpnet_net_pic.a(in_proto.pico)
 .bss           0x00000000000aad84        0x8 librumpnet_net_pic.a(ip_carp.pico)
                0x00000000000aad84                rumpns_carp_suppress_preempt
 .bss           0x00000000000aad8c       0x2c librumpnet_net_pic.a(if_ethersubr.pico)
 .bss           0x00000000000aadb8        0x0 librumpnet_net_pic.a(if_media.pico)
 .bss           0x00000000000aadb8        0x0 librumpnet_net_pic.a(if_loop.pico)
 .bss           0x00000000000aadb8        0x0 librumpnet_net_pic.a(in6_offload.pico)
 .bss           0x00000000000aadb8        0x0 librumpnet_net_pic.a(in6_cksum.pico)
 .bss           0x00000000000aadb8        0x0 librumpnet_net_pic.a(in_offload.pico)
 .bss           0x00000000000aadb8        0x0 librumpnet_net_pic.a(in4_cksum.pico)
 *fill*         0x00000000000aadb8        0x8 00
 .bss           0x00000000000aadc0       0xf8 librumpnet_net_pic.a(in.pico)
 .bss           0x00000000000aaeb8        0x0 librumpnet_net_pic.a(igmp.pico)
 .bss           0x00000000000aaeb8        0x0 librumpnet_net_pic.a(net_stats.pico)
 .bss           0x00000000000aaeb8        0x0 librumpnet_net_pic.a(in_cksum.pico)
 .bss           0x00000000000aaeb8        0x0 librumpnet_net_pic.a(cpu_in_cksum.pico)
 .bss           0x00000000000aaeb8        0x0 librumpnet_net_pic.a(uipc_syscalls_50.pico)
 .bss           0x00000000000aaeb8        0x0 librumpnet_net_pic.a(if_43.pico)
 .bss           0x00000000000aaeb8        0x0 librumpnet_net_pic.a(link_proto.pico)
 .bss           0x00000000000aaeb8        0x0 librumpnet_net_pic.a(rtsock_50.pico)
 .bss           0x00000000000aaeb8        0x0 librumpnet_net_pic.a(rtsock.pico)
 .bss           0x00000000000aaeb8        0x0 librumpnet_net_pic.a(raw_usrreq.pico)
 .bss           0x00000000000aaeb8        0x4 librumpnet_net_pic.a(raw_cb.pico)
                0x00000000000aaeb8                rumpns_rawcb
 .bss           0x00000000000aaebc        0xc librumpnet_net_pic.a(route.pico)
 .bss           0x00000000000aaec8       0x2c librumpnet_net_pic.a(if.pico)
 .bss           0x00000000000aaef4        0x0 librumpnet_net_pic.a(pfil.pico)
 .bss           0x00000000000aaef4        0x0 /usr/local/genode-gcc/bin/../lib/gcc/x86_64-elf/4.7.4/32/crtend.o
 *(COMMON)
 COMMON         0x00000000000aaef4       0x18 librumpnet_net_pic.a(mpls_proto.pico)
                0x00000000000aaef4                rumpns_mplsintrq
 COMMON         0x00000000000aaf0c        0x4 librumpnet_net_pic.a(udp6_usrreq.pico)
                0x00000000000aaf0c                rumpns_udp6stat_percpu
 *fill*         0x00000000000aaf10       0x10 00
 COMMON         0x00000000000aaf20       0x28 librumpnet_net_pic.a(raw_ip6.pico)
                0x00000000000aaf20                rumpns_raw6cbtable
 COMMON         0x00000000000aaf48        0x8 librumpnet_net_pic.a(nd6_rtr.pico)
                0x00000000000aaf48                rumpns_ip6_desync_factor
                0x00000000000aaf4c                rumpns_nd6_defifindex
 *fill*         0x00000000000aaf50       0x10 00
 COMMON         0x00000000000aaf60       0x68 librumpnet_net_pic.a(nd6.pico)
                0x00000000000aaf60                rumpns_nd6_timer_ch
                0x00000000000aaf88                rumpns_nd_defrouter
                0x00000000000aafa0                rumpns_nd6_slowtimo_ch
 *fill*         0x00000000000aafc8       0x18 00
 COMMON         0x00000000000aafe0     0x16a0 librumpnet_net_pic.a(ip6_mroute.pico)
                0x00000000000aafe0                rumpns_multicast_register_if6
                0x00000000000ab200                rumpns_mif6table
                0x00000000000ac100                rumpns_mrt6stat
                0x00000000000ac180                rumpns_mf6ctable
                0x00000000000ac580                rumpns_n6expire
 COMMON         0x00000000000ac680      0x134 librumpnet_net_pic.a(ip6_input.pico)
                0x00000000000ac680                rumpns_ip6stat_percpu
                0x00000000000ac6a0                rumpns_ip6_protox
                0x00000000000ac7a0                rumpns_in6_ifaddr
                0x00000000000ac7a4                rumpns_ip6_sourcecheck
                0x00000000000ac7a8                rumpns_inet6_pfil_hook
                0x00000000000ac7ac                rumpns_ip6_forward_srcrt
                0x00000000000ac7b0                rumpns_ip6_sourcecheck_interval
 COMMON         0x00000000000ac7b4       0x14 librumpnet_net_pic.a(ip6_forward.pico)
                0x00000000000ac7b4                rumpns_ip6_forward_rt
 *fill*         0x00000000000ac7c8       0x18 00
 COMMON         0x00000000000ac7e0       0x50 librumpnet_net_pic.a(in6_src.pico)
                0x00000000000ac7e0                rumpns_defaultaddrpolicy
                0x00000000000ac828                rumpns_addrsel_policytab
 *fill*         0x00000000000ac830       0x10 00
 COMMON         0x00000000000ac840       0x68 librumpnet_net_pic.a(frag6.pico)
                0x00000000000ac840                rumpns_frag6_nfrags
                0x00000000000ac844                rumpns_frag6_nfragpackets
                0x00000000000ac860                rumpns_ip6q
 COMMON         0x00000000000ac8a8       0x10 librumpnet_net_pic.a(in6_pcb.pico)
                0x00000000000ac8a8                rumpns_zeroin6_addr
 *fill*         0x00000000000ac8b8        0x8 00
 COMMON         0x00000000000ac8c0       0x28 librumpnet_net_pic.a(in6_ifattach.pico)
                0x00000000000ac8c0                rumpns_in6_tmpaddrtimer_ch
 COMMON         0x00000000000ac8e8        0x4 librumpnet_net_pic.a(icmp6.pico)
                0x00000000000ac8e8                rumpns_icmp6stat_percpu
 *fill*         0x00000000000ac8ec       0x14 00
 COMMON         0x00000000000ac900       0x2c librumpnet_net_pic.a(udp_usrreq.pico)
                0x00000000000ac900                rumpns_udbtable
                0x00000000000ac928                rumpns_udpstat_percpu
 *fill*         0x00000000000ac92c       0x14 00
 COMMON         0x00000000000ac940      0x260 librumpnet_net_pic.a(tcp_vtw.pico)
                0x00000000000ac940                rumpns_vtw_stats
                0x00000000000ac9e0                rumpns_vtw_tcpv6
                0x00000000000aca80                rumpns_fat_tcpv6
                0x00000000000acac0                rumpns_fat_tcpv4
                0x00000000000acb00                rumpns_vtw_tcpv4
 COMMON         0x00000000000acba0      0xe5c librumpnet_net_pic.a(tcp_subr.pico)
                0x00000000000acba0                rumpns_tcpstat_percpu
                0x00000000000acba4                rumpns_tcp_iss_secret
                0x00000000000acbc0                rumpns_tcbtable
                0x00000000000acc00                rumpns_tcp_slowtimo_ch
                0x00000000000acc28                rumpns_tcp_now
                0x00000000000acc40                rumpns_tcp_syn_cache
 *fill*         0x00000000000ad9fc        0x4 00
 COMMON         0x00000000000ada00       0x84 librumpnet_net_pic.a(tcp_congctl.pico)
                0x00000000000ada00                rumpns_tcp_congctl_avail
                0x00000000000ada78                rumpns_tcp_congctl_global_name
 COMMON         0x00000000000ada84       0x10 librumpnet_net_pic.a(tcp_input.pico)
                0x00000000000ada84                rumpns_syn_hash1
                0x00000000000ada88                rumpns_syn_cache_count
                0x00000000000ada8c                rumpns_tcp_log_refused
                0x00000000000ada90                rumpns_syn_hash2
 *fill*         0x00000000000ada94        0xc 00
 COMMON         0x00000000000adaa0       0x58 librumpnet_net_pic.a(if_arp.pico)
                0x00000000000adaa0                rumpns_srv_ip
                0x00000000000adac0                rumpns_arptimer_ch
                0x00000000000adae8                rumpns_myip
                0x00000000000adaec                rumpns_llinfo_arp
                0x00000000000adaf0                rumpns_arp_allocated
                0x00000000000adaf4                rumpns_arp_inuse
 COMMON         0x00000000000adaf8        0x8 librumpnet_net_pic.a(ip_encap.pico)
                0x00000000000adaf8                rumpns_encap_head
 COMMON         0x00000000000adb00       0x28 librumpnet_net_pic.a(raw_ip.pico)
                0x00000000000adb00                rumpns_rawcbtable
 COMMON         0x00000000000adb28        0x2 librumpnet_net_pic.a(ip_input.pico)
                0x00000000000adb28                rumpns_ip_id
 COMMON         0x00000000000adb2a        0x4 librumpnet_net_pic.a(in_pcb.pico)
                0x00000000000adb2a                rumpns_zeroin_addr
 *fill*         0x00000000000adb2e        0x2 00
 COMMON         0x00000000000adb30        0x4 librumpnet_net_pic.a(ip_icmp.pico)
                0x00000000000adb30                rumpns_icmpstat_percpu
 *fill*         0x00000000000adb34        0xc 00
 COMMON         0x00000000000adb40      0x100 librumpnet_net_pic.a(in_proto.pico)
                0x00000000000adb40                rumpns_ip_protox
 COMMON         0x00000000000adc40       0x14 librumpnet_net_pic.a(in.pico)
                0x00000000000adc40                rumpns_in_ifaddrhash
                0x00000000000adc44                rumpns_in_ifaddrhead
                0x00000000000adc4c                rumpns_in_maxmtu
                0x00000000000adc50                rumpns_in_ifaddrhashtbl
 *fill*         0x00000000000adc54        0xc 00
 COMMON         0x00000000000adc60      0x258 librumpnet_net_pic.a(route.pico)
                0x00000000000adc60                rumpns_rttrash
                0x00000000000adc64                rumpns_rttimer_queue_head
                0x00000000000adc80                rumpns_rtentry_pool
                0x00000000000add60                rumpns_rt_timer_ch
                0x00000000000adda0                rumpns_rtstat
                0x00000000000adde0                rumpns_rttimer_pool
 COMMON         0x00000000000adeb8       0x10 librumpnet_net_pic.a(if.pico)
                0x00000000000adeb8                rumpns_ifnet_list
                0x00000000000adec0                rumpns_lo0ifp
                0x00000000000adec4                rumpns_if_pfil
                0x00000000000adec8                . = ALIGN ((. != 0x0)?0x4:0x1)
                0x00000000000adec8                . = ALIGN (0x4)
                0x00000000000adec8                . = ALIGN (0x4)
                0x00000000000adec8                _end = .
                0x00000000000adec8                PROVIDE (end, .)
                0x00000000000adec8                . = DATA_SEGMENT_END (.)

.stab
 *(.stab)

.stabstr
 *(.stabstr)

.stab.excl
 *(.stab.excl)

.stab.exclstr
 *(.stab.exclstr)

.stab.index
 *(.stab.index)

.stab.indexstr
 *(.stab.indexstr)

.comment        0x0000000000000000       0x11
 *(.comment)
 .comment       0x0000000000000000       0x11 /usr/local/genode-gcc/bin/../lib/gcc/x86_64-elf/4.7.4/32/crtbegin.o
                                         0x12 (size before relaxing)
 .comment       0x0000000000000000       0x12 librumpnet_net_pic.a(mpls_proto.pico)
 .comment       0x0000000000000000       0x12 librumpnet_net_pic.a(net_component.pico)
 .comment       0x0000000000000000       0x12 librumpnet_net_pic.a(udp6_usrreq.pico)
 .comment       0x0000000000000000       0x12 librumpnet_net_pic.a(udp6_output.pico)
 .comment       0x0000000000000000       0x12 librumpnet_net_pic.a(scope6.pico)
 .comment       0x0000000000000000       0x12 librumpnet_net_pic.a(route6.pico)
 .comment       0x0000000000000000       0x12 librumpnet_net_pic.a(raw_ip6.pico)
 .comment       0x0000000000000000       0x12 librumpnet_net_pic.a(nd6_rtr.pico)
 .comment       0x0000000000000000       0x12 librumpnet_net_pic.a(nd6_nbr.pico)
 .comment       0x0000000000000000       0x12 librumpnet_net_pic.a(nd6.pico)
 .comment       0x0000000000000000       0x12 librumpnet_net_pic.a(mld6.pico)
 .comment       0x0000000000000000       0x12 librumpnet_net_pic.a(ip6_output.pico)
 .comment       0x0000000000000000       0x12 librumpnet_net_pic.a(ip6_mroute.pico)
 .comment       0x0000000000000000       0x12 librumpnet_net_pic.a(ip6_input.pico)
 .comment       0x0000000000000000       0x12 librumpnet_net_pic.a(ip6_forward.pico)
 .comment       0x0000000000000000       0x12 librumpnet_net_pic.a(ip6_flow.pico)
 .comment       0x0000000000000000       0x12 librumpnet_net_pic.a(in6_src.pico)
 .comment       0x0000000000000000       0x12 librumpnet_net_pic.a(in6_proto.pico)
 .comment       0x0000000000000000       0x12 librumpnet_net_pic.a(frag6.pico)
 .comment       0x0000000000000000       0x12 librumpnet_net_pic.a(dest6.pico)
 .comment       0x0000000000000000       0x12 librumpnet_net_pic.a(in6_pcb.pico)
 .comment       0x0000000000000000       0x12 librumpnet_net_pic.a(in6_ifattach.pico)
 .comment       0x0000000000000000       0x12 librumpnet_net_pic.a(in6.pico)
 .comment       0x0000000000000000       0x12 librumpnet_net_pic.a(icmp6.pico)
 .comment       0x0000000000000000       0x12 librumpnet_net_pic.a(udp_usrreq.pico)
 .comment       0x0000000000000000       0x12 librumpnet_net_pic.a(tcp_vtw.pico)
 .comment       0x0000000000000000       0x12 librumpnet_net_pic.a(tcp_usrreq.pico)
 .comment       0x0000000000000000       0x12 librumpnet_net_pic.a(tcp_timer.pico)
 .comment       0x0000000000000000       0x12 librumpnet_net_pic.a(tcp_subr.pico)
 .comment       0x0000000000000000       0x12 librumpnet_net_pic.a(ip6_id.pico)
 .comment       0x0000000000000000       0x12 librumpnet_net_pic.a(tcp_output.pico)
 .comment       0x0000000000000000       0x12 librumpnet_net_pic.a(tcp_congctl.pico)
 .comment       0x0000000000000000       0x12 librumpnet_net_pic.a(tcp_input.pico)
 .comment       0x0000000000000000       0x12 librumpnet_net_pic.a(tcp_sack.pico)
 .comment       0x0000000000000000       0x12 librumpnet_net_pic.a(if_arp.pico)
 .comment       0x0000000000000000       0x12 librumpnet_net_pic.a(portalgo.pico)
 .comment       0x0000000000000000       0x12 librumpnet_net_pic.a(ip_encap.pico)
 .comment       0x0000000000000000       0x12 librumpnet_net_pic.a(raw_ip.pico)
 .comment       0x0000000000000000       0x12 librumpnet_net_pic.a(ip_output.pico)
 .comment       0x0000000000000000       0x12 librumpnet_net_pic.a(ip_reass.pico)
 .comment       0x0000000000000000       0x12 librumpnet_net_pic.a(ip_input.pico)
 .comment       0x0000000000000000       0x12 librumpnet_net_pic.a(ip_id.pico)
 .comment       0x0000000000000000       0x12 librumpnet_net_pic.a(in_pcb.pico)
 .comment       0x0000000000000000       0x12 librumpnet_net_pic.a(ip_flow.pico)
 .comment       0x0000000000000000       0x12 librumpnet_net_pic.a(ip_icmp.pico)
 .comment       0x0000000000000000       0x12 librumpnet_net_pic.a(in_proto.pico)
 .comment       0x0000000000000000       0x12 librumpnet_net_pic.a(ip_carp.pico)
 .comment       0x0000000000000000       0x12 librumpnet_net_pic.a(if_ethersubr.pico)
 .comment       0x0000000000000000       0x12 librumpnet_net_pic.a(if_media.pico)
 .comment       0x0000000000000000       0x12 librumpnet_net_pic.a(if_loop.pico)
 .comment       0x0000000000000000       0x12 librumpnet_net_pic.a(in6_offload.pico)
 .comment       0x0000000000000000       0x12 librumpnet_net_pic.a(in6_cksum.pico)
 .comment       0x0000000000000000       0x12 librumpnet_net_pic.a(in_offload.pico)
 .comment       0x0000000000000000       0x12 librumpnet_net_pic.a(in4_cksum.pico)
 .comment       0x0000000000000000       0x12 librumpnet_net_pic.a(in.pico)
 .comment       0x0000000000000000       0x12 librumpnet_net_pic.a(igmp.pico)
 .comment       0x0000000000000000       0x12 librumpnet_net_pic.a(net_stats.pico)
 .comment       0x0000000000000000       0x12 librumpnet_net_pic.a(in_cksum.pico)
 .comment       0x0000000000000000       0x12 librumpnet_net_pic.a(cpu_in_cksum.pico)
 .comment       0x0000000000000000       0x12 librumpnet_net_pic.a(uipc_syscalls_50.pico)
 .comment       0x0000000000000000       0x12 librumpnet_net_pic.a(if_43.pico)
 .comment       0x0000000000000000       0x12 librumpnet_net_pic.a(link_proto.pico)
 .comment       0x0000000000000000       0x12 librumpnet_net_pic.a(rtsock_50.pico)
 .comment       0x0000000000000000       0x12 librumpnet_net_pic.a(rtsock.pico)
 .comment       0x0000000000000000       0x12 librumpnet_net_pic.a(raw_usrreq.pico)
 .comment       0x0000000000000000       0x12 librumpnet_net_pic.a(raw_cb.pico)
 .comment       0x0000000000000000       0x12 librumpnet_net_pic.a(route.pico)
 .comment       0x0000000000000000       0x12 librumpnet_net_pic.a(if.pico)
 .comment       0x0000000000000000       0x12 librumpnet_net_pic.a(pfil.pico)
 .comment       0x0000000000000000       0x12 /usr/local/genode-gcc/bin/../lib/gcc/x86_64-elf/4.7.4/32/crtend.o

.ident          0x0000000000000000     0x1041
 .ident         0x0000000000000000       0x3b librumpnet_net_pic.a(mpls_proto.pico)
 .ident         0x000000000000003b       0x3f librumpnet_net_pic.a(net_component.pico)
 .ident         0x000000000000007a       0x3d librumpnet_net_pic.a(udp6_usrreq.pico)
 .ident         0x00000000000000b7       0x3e librumpnet_net_pic.a(udp6_output.pico)
 .ident         0x00000000000000f5       0x3c librumpnet_net_pic.a(scope6.pico)
 .ident         0x0000000000000131       0x3b librumpnet_net_pic.a(route6.pico)
 .ident         0x000000000000016c       0x39 librumpnet_net_pic.a(raw_ip6.pico)
 .ident         0x00000000000001a5       0x38 librumpnet_net_pic.a(nd6_rtr.pico)
 .ident         0x00000000000001dd       0x39 librumpnet_net_pic.a(nd6_nbr.pico)
 .ident         0x0000000000000216       0x35 librumpnet_net_pic.a(nd6.pico)
 .ident         0x000000000000024b       0x39 librumpnet_net_pic.a(mld6.pico)
 .ident         0x0000000000000284       0x41 librumpnet_net_pic.a(ip6_output.pico)
 .ident         0x00000000000002c5       0x3e librumpnet_net_pic.a(ip6_mroute.pico)
 .ident         0x0000000000000303       0x3f librumpnet_net_pic.a(ip6_input.pico)
 .ident         0x0000000000000342       0x41 librumpnet_net_pic.a(ip6_forward.pico)
 .ident         0x0000000000000383       0x3c librumpnet_net_pic.a(ip6_flow.pico)
 .ident         0x00000000000003bf       0x39 librumpnet_net_pic.a(in6_src.pico)
 .ident         0x00000000000003f8       0x3d librumpnet_net_pic.a(in6_proto.pico)
 .ident         0x0000000000000435       0x37 librumpnet_net_pic.a(frag6.pico)
 .ident         0x000000000000046c       0x37 librumpnet_net_pic.a(dest6.pico)
 .ident         0x00000000000004a3       0x3b librumpnet_net_pic.a(in6_pcb.pico)
 .ident         0x00000000000004de       0x3e librumpnet_net_pic.a(in6_ifattach.pico)
 .ident         0x000000000000051c       0x3a librumpnet_net_pic.a(in6.pico)
 .ident         0x0000000000000556       0x3c librumpnet_net_pic.a(icmp6.pico)
 .ident         0x0000000000000592       0x3c librumpnet_net_pic.a(udp_usrreq.pico)
 .ident         0x00000000000005ce       0x39 librumpnet_net_pic.a(tcp_vtw.pico)
 .ident         0x0000000000000607       0x3d librumpnet_net_pic.a(tcp_usrreq.pico)
 .ident         0x0000000000000644       0x3b librumpnet_net_pic.a(tcp_timer.pico)
 .ident         0x000000000000067f       0x3b librumpnet_net_pic.a(tcp_subr.pico)
 .ident         0x00000000000006ba       0x37 librumpnet_net_pic.a(ip6_id.pico)
 .ident         0x00000000000006f1       0x3d librumpnet_net_pic.a(tcp_output.pico)
 .ident         0x000000000000072e       0x3f librumpnet_net_pic.a(tcp_congctl.pico)
 .ident         0x000000000000076d       0x40 librumpnet_net_pic.a(tcp_input.pico)
 .ident         0x00000000000007ad       0x3a librumpnet_net_pic.a(tcp_sack.pico)
 .ident         0x00000000000007e7       0x3d librumpnet_net_pic.a(if_arp.pico)
 .ident         0x0000000000000824       0x3d librumpnet_net_pic.a(portalgo.pico)
 .ident         0x0000000000000861       0x3b librumpnet_net_pic.a(ip_encap.pico)
 .ident         0x000000000000089c       0x39 librumpnet_net_pic.a(raw_ip.pico)
 .ident         0x00000000000008d5       0x3f librumpnet_net_pic.a(ip_output.pico)
 .ident         0x0000000000000914       0x3a librumpnet_net_pic.a(ip_reass.pico)
 .ident         0x000000000000094e       0x3e librumpnet_net_pic.a(ip_input.pico)
 .ident         0x000000000000098c       0x36 librumpnet_net_pic.a(ip_id.pico)
 .ident         0x00000000000009c2       0x3a librumpnet_net_pic.a(in_pcb.pico)
 .ident         0x00000000000009fc       0x38 librumpnet_net_pic.a(ip_flow.pico)
 .ident         0x0000000000000a34       0x3e librumpnet_net_pic.a(ip_icmp.pico)
 .ident         0x0000000000000a72       0x3c librumpnet_net_pic.a(in_proto.pico)
 .ident         0x0000000000000aae       0x3c librumpnet_net_pic.a(ip_carp.pico)
 .ident         0x0000000000000aea       0x42 librumpnet_net_pic.a(if_ethersubr.pico)
 .ident         0x0000000000000b2c       0x3c librumpnet_net_pic.a(if_media.pico)
 .ident         0x0000000000000b68       0x3a librumpnet_net_pic.a(if_loop.pico)
 .ident         0x0000000000000ba2       0x3c librumpnet_net_pic.a(in6_offload.pico)
 .ident         0x0000000000000bde       0x3b librumpnet_net_pic.a(in6_cksum.pico)
 .ident         0x0000000000000c19       0x3b librumpnet_net_pic.a(in_offload.pico)
 .ident         0x0000000000000c54       0x3f librumpnet_net_pic.a(in4_cksum.pico)
 .ident         0x0000000000000c93       0x39 librumpnet_net_pic.a(in.pico)
 .ident         0x0000000000000ccc       0x37 librumpnet_net_pic.a(igmp.pico)
 .ident         0x0000000000000d03       0x3d librumpnet_net_pic.a(net_stats.pico)
 .ident         0x0000000000000d40       0x3b librumpnet_net_pic.a(in_cksum.pico)
 .ident         0x0000000000000d7b       0x3e librumpnet_net_pic.a(cpu_in_cksum.pico)
 .ident         0x0000000000000db9       0x44 librumpnet_net_pic.a(uipc_syscalls_50.pico)
 .ident         0x0000000000000dfd       0x36 librumpnet_net_pic.a(if_43.pico)
 .ident         0x0000000000000e33       0x3b librumpnet_net_pic.a(link_proto.pico)
 .ident         0x0000000000000e6e       0x77 librumpnet_net_pic.a(rtsock_50.pico)
 .ident         0x0000000000000ee5       0x3d librumpnet_net_pic.a(rtsock.pico)
 .ident         0x0000000000000f22       0x3b librumpnet_net_pic.a(raw_usrreq.pico)
 .ident         0x0000000000000f5d       0x39 librumpnet_net_pic.a(raw_cb.pico)
 .ident         0x0000000000000f96       0x3c librumpnet_net_pic.a(route.pico)
 .ident         0x0000000000000fd2       0x38 librumpnet_net_pic.a(if.pico)
 .ident         0x000000000000100a       0x37 librumpnet_net_pic.a(pfil.pico)

.debug
 *(.debug)

.line
 *(.line)

.debug_srcinfo
 *(.debug_srcinfo)

.debug_sfnames
 *(.debug_sfnames)

.debug_aranges  0x0000000000000000      0x9a0
 *(.debug_aranges)
 .debug_aranges
                0x0000000000000000       0x20 librumpnet_net_pic.a(mpls_proto.pico)
 .debug_aranges
                0x0000000000000020       0x20 librumpnet_net_pic.a(net_component.pico)
 .debug_aranges
                0x0000000000000040       0x20 librumpnet_net_pic.a(udp6_usrreq.pico)
 .debug_aranges
                0x0000000000000060       0x20 librumpnet_net_pic.a(udp6_output.pico)
 .debug_aranges
                0x0000000000000080       0x20 librumpnet_net_pic.a(scope6.pico)
 .debug_aranges
                0x00000000000000a0       0x20 librumpnet_net_pic.a(route6.pico)
 .debug_aranges
                0x00000000000000c0       0x20 librumpnet_net_pic.a(raw_ip6.pico)
 .debug_aranges
                0x00000000000000e0       0x20 librumpnet_net_pic.a(nd6_rtr.pico)
 .debug_aranges
                0x0000000000000100       0x20 librumpnet_net_pic.a(nd6_nbr.pico)
 .debug_aranges
                0x0000000000000120       0x20 librumpnet_net_pic.a(nd6.pico)
 .debug_aranges
                0x0000000000000140       0x20 librumpnet_net_pic.a(mld6.pico)
 .debug_aranges
                0x0000000000000160       0x30 librumpnet_net_pic.a(ip6_output.pico)
 .debug_aranges
                0x0000000000000190       0x20 librumpnet_net_pic.a(ip6_mroute.pico)
 .debug_aranges
                0x00000000000001b0       0x20 librumpnet_net_pic.a(ip6_input.pico)
 .debug_aranges
                0x00000000000001d0       0x30 librumpnet_net_pic.a(ip6_forward.pico)
 .debug_aranges
                0x0000000000000200       0x30 librumpnet_net_pic.a(ip6_flow.pico)
 .debug_aranges
                0x0000000000000230       0x38 librumpnet_net_pic.a(in6_src.pico)
 .debug_aranges
                0x0000000000000268       0x20 librumpnet_net_pic.a(in6_proto.pico)
 .debug_aranges
                0x0000000000000288       0x20 librumpnet_net_pic.a(frag6.pico)
 .debug_aranges
                0x00000000000002a8       0x20 librumpnet_net_pic.a(dest6.pico)
 .debug_aranges
                0x00000000000002c8       0x38 librumpnet_net_pic.a(in6_pcb.pico)
 .debug_aranges
                0x0000000000000300       0x20 librumpnet_net_pic.a(in6_ifattach.pico)
 .debug_aranges
                0x0000000000000320       0x20 librumpnet_net_pic.a(in6.pico)
 .debug_aranges
                0x0000000000000340       0x38 librumpnet_net_pic.a(icmp6.pico)
 .debug_aranges
                0x0000000000000378       0x20 librumpnet_net_pic.a(udp_usrreq.pico)
 .debug_aranges
                0x0000000000000398       0x20 librumpnet_net_pic.a(tcp_vtw.pico)
 .debug_aranges
                0x00000000000003b8       0x30 librumpnet_net_pic.a(tcp_usrreq.pico)
 .debug_aranges
                0x00000000000003e8       0x20 librumpnet_net_pic.a(tcp_timer.pico)
 .debug_aranges
                0x0000000000000408       0x20 librumpnet_net_pic.a(tcp_subr.pico)
 .debug_aranges
                0x0000000000000428       0x20 librumpnet_net_pic.a(ip6_id.pico)
 .debug_aranges
                0x0000000000000448       0x20 librumpnet_net_pic.a(tcp_output.pico)
 .debug_aranges
                0x0000000000000468       0x20 librumpnet_net_pic.a(tcp_congctl.pico)
 .debug_aranges
                0x0000000000000488       0x38 librumpnet_net_pic.a(tcp_input.pico)
 .debug_aranges
                0x00000000000004c0       0x20 librumpnet_net_pic.a(tcp_sack.pico)
 .debug_aranges
                0x00000000000004e0       0x20 librumpnet_net_pic.a(if_arp.pico)
 .debug_aranges
                0x0000000000000500       0x20 librumpnet_net_pic.a(portalgo.pico)
 .debug_aranges
                0x0000000000000520       0x20 librumpnet_net_pic.a(ip_encap.pico)
 .debug_aranges
                0x0000000000000540       0x20 librumpnet_net_pic.a(raw_ip.pico)
 .debug_aranges
                0x0000000000000560       0x30 librumpnet_net_pic.a(ip_output.pico)
 .debug_aranges
                0x0000000000000590       0x20 librumpnet_net_pic.a(ip_reass.pico)
 .debug_aranges
                0x00000000000005b0       0x20 librumpnet_net_pic.a(ip_input.pico)
 .debug_aranges
                0x00000000000005d0       0x20 librumpnet_net_pic.a(ip_id.pico)
 .debug_aranges
                0x00000000000005f0       0x30 librumpnet_net_pic.a(in_pcb.pico)
 .debug_aranges
                0x0000000000000620       0x30 librumpnet_net_pic.a(ip_flow.pico)
 .debug_aranges
                0x0000000000000650       0x20 librumpnet_net_pic.a(ip_icmp.pico)
 .debug_aranges
                0x0000000000000670       0x20 librumpnet_net_pic.a(in_proto.pico)
 .debug_aranges
                0x0000000000000690       0x20 librumpnet_net_pic.a(ip_carp.pico)
 .debug_aranges
                0x00000000000006b0       0x20 librumpnet_net_pic.a(if_ethersubr.pico)
 .debug_aranges
                0x00000000000006d0       0x20 librumpnet_net_pic.a(if_media.pico)
 .debug_aranges
                0x00000000000006f0       0x20 librumpnet_net_pic.a(if_loop.pico)
 .debug_aranges
                0x0000000000000710       0x20 librumpnet_net_pic.a(in6_offload.pico)
 .debug_aranges
                0x0000000000000730       0x20 librumpnet_net_pic.a(in6_cksum.pico)
 .debug_aranges
                0x0000000000000750       0x20 librumpnet_net_pic.a(in_offload.pico)
 .debug_aranges
                0x0000000000000770       0x20 librumpnet_net_pic.a(in4_cksum.pico)
 .debug_aranges
                0x0000000000000790       0x20 librumpnet_net_pic.a(in.pico)
 .debug_aranges
                0x00000000000007b0       0x20 librumpnet_net_pic.a(igmp.pico)
 .debug_aranges
                0x00000000000007d0       0x20 librumpnet_net_pic.a(net_stats.pico)
 .debug_aranges
                0x00000000000007f0       0x20 librumpnet_net_pic.a(in_cksum.pico)
 .debug_aranges
                0x0000000000000810       0x20 librumpnet_net_pic.a(cpu_in_cksum.pico)
 .debug_aranges
                0x0000000000000830       0x20 librumpnet_net_pic.a(uipc_syscalls_50.pico)
 .debug_aranges
                0x0000000000000850       0x20 librumpnet_net_pic.a(if_43.pico)
 .debug_aranges
                0x0000000000000870       0x20 librumpnet_net_pic.a(link_proto.pico)
 .debug_aranges
                0x0000000000000890       0x30 librumpnet_net_pic.a(rtsock_50.pico)
 .debug_aranges
                0x00000000000008c0       0x30 librumpnet_net_pic.a(rtsock.pico)
 .debug_aranges
                0x00000000000008f0       0x20 librumpnet_net_pic.a(raw_usrreq.pico)
 .debug_aranges
                0x0000000000000910       0x20 librumpnet_net_pic.a(raw_cb.pico)
 .debug_aranges
                0x0000000000000930       0x30 librumpnet_net_pic.a(route.pico)
 .debug_aranges
                0x0000000000000960       0x20 librumpnet_net_pic.a(if.pico)
 .debug_aranges
                0x0000000000000980       0x20 librumpnet_net_pic.a(pfil.pico)

.debug_pubnames
 *(.debug_pubnames)

.debug_info     0x0000000000000000   0x205059
 *(.debug_info .gnu.linkonce.wi.*)
 .debug_info    0x0000000000000000     0x8183 librumpnet_net_pic.a(mpls_proto.pico)
 .debug_info    0x0000000000008183     0x75c4 librumpnet_net_pic.a(net_component.pico)
 .debug_info    0x000000000000f747     0xacc1 librumpnet_net_pic.a(udp6_usrreq.pico)
 .debug_info    0x000000000001a408     0x7ed2 librumpnet_net_pic.a(udp6_output.pico)
 .debug_info    0x00000000000222da     0x2441 librumpnet_net_pic.a(scope6.pico)
 .debug_info    0x000000000002471b     0x1c2b librumpnet_net_pic.a(route6.pico)
 .debug_info    0x0000000000026346     0xb072 librumpnet_net_pic.a(raw_ip6.pico)
 .debug_info    0x00000000000313b8     0x593f librumpnet_net_pic.a(nd6_rtr.pico)
 .debug_info    0x0000000000036cf7     0xa67b librumpnet_net_pic.a(nd6_nbr.pico)
 .debug_info    0x0000000000041372     0x5e17 librumpnet_net_pic.a(nd6.pico)
 .debug_info    0x0000000000047189     0x8b9b librumpnet_net_pic.a(mld6.pico)
 .debug_info    0x000000000004fd24     0xbf1a librumpnet_net_pic.a(ip6_output.pico)
 .debug_info    0x000000000005bc3e     0xa3ac librumpnet_net_pic.a(ip6_mroute.pico)
 .debug_info    0x0000000000065fea     0xc413 librumpnet_net_pic.a(ip6_input.pico)
 .debug_info    0x00000000000723fd     0x2f99 librumpnet_net_pic.a(ip6_forward.pico)
 .debug_info    0x0000000000075396     0x31b3 librumpnet_net_pic.a(ip6_flow.pico)
 .debug_info    0x0000000000078549     0x8fb1 librumpnet_net_pic.a(in6_src.pico)
 .debug_info    0x00000000000814fa     0x7607 librumpnet_net_pic.a(in6_proto.pico)
 .debug_info    0x0000000000088b01     0x32d2 librumpnet_net_pic.a(frag6.pico)
 .debug_info    0x000000000008bdd3     0x1c05 librumpnet_net_pic.a(dest6.pico)
 .debug_info    0x000000000008d9d8     0xaac2 librumpnet_net_pic.a(in6_pcb.pico)
 .debug_info    0x000000000009849a     0x390d librumpnet_net_pic.a(in6_ifattach.pico)
 .debug_info    0x000000000009bda7     0xa3ac librumpnet_net_pic.a(in6.pico)
 .debug_info    0x00000000000a6153     0xdc6f librumpnet_net_pic.a(icmp6.pico)
 .debug_info    0x00000000000b3dc2     0xb187 librumpnet_net_pic.a(udp_usrreq.pico)
 .debug_info    0x00000000000bef49     0xcc73 librumpnet_net_pic.a(tcp_vtw.pico)
 .debug_info    0x00000000000cbbbc     0xf35e librumpnet_net_pic.a(tcp_usrreq.pico)
 .debug_info    0x00000000000daf1a     0x82ca librumpnet_net_pic.a(tcp_timer.pico)
 .debug_info    0x00000000000e31e4     0xcdc5 librumpnet_net_pic.a(tcp_subr.pico)
 .debug_info    0x00000000000effa9      0x53a librumpnet_net_pic.a(ip6_id.pico)
 .debug_info    0x00000000000f04e3     0xaa29 librumpnet_net_pic.a(tcp_output.pico)
 .debug_info    0x00000000000faf0c     0x93a2 librumpnet_net_pic.a(tcp_congctl.pico)
 .debug_info    0x00000000001042ae     0xf32d librumpnet_net_pic.a(tcp_input.pico)
 .debug_info    0x00000000001135db     0x8e86 librumpnet_net_pic.a(tcp_sack.pico)
 .debug_info    0x000000000011c461     0x9d07 librumpnet_net_pic.a(if_arp.pico)
 .debug_info    0x0000000000126168     0x9ca4 librumpnet_net_pic.a(portalgo.pico)
 .debug_info    0x000000000012fe0c     0x7d5d librumpnet_net_pic.a(ip_encap.pico)
 .debug_info    0x0000000000137b69     0x9e43 librumpnet_net_pic.a(raw_ip.pico)
 .debug_info    0x00000000001419ac     0x9c8a librumpnet_net_pic.a(ip_output.pico)
 .debug_info    0x000000000014b636     0x7562 librumpnet_net_pic.a(ip_reass.pico)
 .debug_info    0x0000000000152b98     0xa731 librumpnet_net_pic.a(ip_input.pico)
 .debug_info    0x000000000015d2c9     0x1413 librumpnet_net_pic.a(ip_id.pico)
 .debug_info    0x000000000015e6dc     0xa7e2 librumpnet_net_pic.a(in_pcb.pico)
 .debug_info    0x0000000000168ebe     0x74b1 librumpnet_net_pic.a(ip_flow.pico)
 .debug_info    0x000000000017036f     0x8cf4 librumpnet_net_pic.a(ip_icmp.pico)
 .debug_info    0x0000000000179063     0x6b13 librumpnet_net_pic.a(in_proto.pico)
 .debug_info    0x000000000017fb76     0xccd6 librumpnet_net_pic.a(ip_carp.pico)
 .debug_info    0x000000000018c84c     0x98e4 librumpnet_net_pic.a(if_ethersubr.pico)
 .debug_info    0x0000000000196130     0x165e librumpnet_net_pic.a(if_media.pico)
 .debug_info    0x000000000019778e     0x299e librumpnet_net_pic.a(if_loop.pico)
 .debug_info    0x000000000019a12c     0x2204 librumpnet_net_pic.a(in6_offload.pico)
 .debug_info    0x000000000019c330      0x795 librumpnet_net_pic.a(in6_cksum.pico)
 .debug_info    0x000000000019cac5     0x1d29 librumpnet_net_pic.a(in_offload.pico)
 .debug_info    0x000000000019e7ee      0x622 librumpnet_net_pic.a(in4_cksum.pico)
 .debug_info    0x000000000019ee10     0x9775 librumpnet_net_pic.a(in.pico)
 .debug_info    0x00000000001a8585     0x77c3 librumpnet_net_pic.a(igmp.pico)
 .debug_info    0x00000000001afd48     0x45d6 librumpnet_net_pic.a(net_stats.pico)
 .debug_info    0x00000000001b431e      0x178 librumpnet_net_pic.a(in_cksum.pico)
 .debug_info    0x00000000001b4496      0x634 librumpnet_net_pic.a(cpu_in_cksum.pico)
 .debug_info    0x00000000001b4aca     0x512d librumpnet_net_pic.a(uipc_syscalls_50.pico)
 .debug_info    0x00000000001b9bf7     0x7657 librumpnet_net_pic.a(if_43.pico)
 .debug_info    0x00000000001c124e     0x822b librumpnet_net_pic.a(link_proto.pico)
 .debug_info    0x00000000001c9479     0xaec3 librumpnet_net_pic.a(rtsock_50.pico)
 .debug_info    0x00000000001d433c     0xac16 librumpnet_net_pic.a(rtsock.pico)
 .debug_info    0x00000000001def52     0x6fe2 librumpnet_net_pic.a(raw_usrreq.pico)
 .debug_info    0x00000000001e5f34     0x6933 librumpnet_net_pic.a(raw_cb.pico)
 .debug_info    0x00000000001ec867     0xaa1d librumpnet_net_pic.a(route.pico)
 .debug_info    0x00000000001f7284     0xc8cf librumpnet_net_pic.a(if.pico)
 .debug_info    0x0000000000203b53     0x1506 librumpnet_net_pic.a(pfil.pico)

.debug_abbrev   0x0000000000000000    0x14f8c
 *(.debug_abbrev)
 .debug_abbrev  0x0000000000000000      0x3c7 librumpnet_net_pic.a(mpls_proto.pico)
 .debug_abbrev  0x00000000000003c7      0x2bd librumpnet_net_pic.a(net_component.pico)
 .debug_abbrev  0x0000000000000684      0x60f librumpnet_net_pic.a(udp6_usrreq.pico)
 .debug_abbrev  0x0000000000000c93      0x43f librumpnet_net_pic.a(udp6_output.pico)
 .debug_abbrev  0x00000000000010d2      0x47a librumpnet_net_pic.a(scope6.pico)
 .debug_abbrev  0x000000000000154c      0x27b librumpnet_net_pic.a(route6.pico)
 .debug_abbrev  0x00000000000017c7      0x5ee librumpnet_net_pic.a(raw_ip6.pico)
 .debug_abbrev  0x0000000000001db5      0x5e6 librumpnet_net_pic.a(nd6_rtr.pico)
 .debug_abbrev  0x000000000000239b      0x60d librumpnet_net_pic.a(nd6_nbr.pico)
 .debug_abbrev  0x00000000000029a8      0x663 librumpnet_net_pic.a(nd6.pico)
 .debug_abbrev  0x000000000000300b      0x5e7 librumpnet_net_pic.a(mld6.pico)
 .debug_abbrev  0x00000000000035f2      0x5f7 librumpnet_net_pic.a(ip6_output.pico)
 .debug_abbrev  0x0000000000003be9      0x578 librumpnet_net_pic.a(ip6_mroute.pico)
 .debug_abbrev  0x0000000000004161      0x65b librumpnet_net_pic.a(ip6_input.pico)
 .debug_abbrev  0x00000000000047bc      0x42e librumpnet_net_pic.a(ip6_forward.pico)
 .debug_abbrev  0x0000000000004bea      0x4d4 librumpnet_net_pic.a(ip6_flow.pico)
 .debug_abbrev  0x00000000000050be      0x63b librumpnet_net_pic.a(in6_src.pico)
 .debug_abbrev  0x00000000000056f9      0x363 librumpnet_net_pic.a(in6_proto.pico)
 .debug_abbrev  0x0000000000005a5c      0x4d7 librumpnet_net_pic.a(frag6.pico)
 .debug_abbrev  0x0000000000005f33      0x288 librumpnet_net_pic.a(dest6.pico)
 .debug_abbrev  0x00000000000061bb      0x68d librumpnet_net_pic.a(in6_pcb.pico)
 .debug_abbrev  0x0000000000006848      0x49f librumpnet_net_pic.a(in6_ifattach.pico)
 .debug_abbrev  0x0000000000006ce7      0x705 librumpnet_net_pic.a(in6.pico)
 .debug_abbrev  0x00000000000073ec      0x686 librumpnet_net_pic.a(icmp6.pico)
 .debug_abbrev  0x0000000000007a72      0x60e librumpnet_net_pic.a(udp_usrreq.pico)
 .debug_abbrev  0x0000000000008080      0x664 librumpnet_net_pic.a(tcp_vtw.pico)
 .debug_abbrev  0x00000000000086e4      0x60d librumpnet_net_pic.a(tcp_usrreq.pico)
 .debug_abbrev  0x0000000000008cf1      0x454 librumpnet_net_pic.a(tcp_timer.pico)
 .debug_abbrev  0x0000000000009145      0x64c librumpnet_net_pic.a(tcp_subr.pico)
 .debug_abbrev  0x0000000000009791      0x21e librumpnet_net_pic.a(ip6_id.pico)
 .debug_abbrev  0x00000000000099af      0x527 librumpnet_net_pic.a(tcp_output.pico)
 .debug_abbrev  0x0000000000009ed6      0x5ce librumpnet_net_pic.a(tcp_congctl.pico)
 .debug_abbrev  0x000000000000a4a4      0x658 librumpnet_net_pic.a(tcp_input.pico)
 .debug_abbrev  0x000000000000aafc      0x490 librumpnet_net_pic.a(tcp_sack.pico)
 .debug_abbrev  0x000000000000af8c      0x656 librumpnet_net_pic.a(if_arp.pico)
 .debug_abbrev  0x000000000000b5e2      0x5a6 librumpnet_net_pic.a(portalgo.pico)
 .debug_abbrev  0x000000000000bb88      0x57f librumpnet_net_pic.a(ip_encap.pico)
 .debug_abbrev  0x000000000000c107      0x5fd librumpnet_net_pic.a(raw_ip.pico)
 .debug_abbrev  0x000000000000c704      0x5ed librumpnet_net_pic.a(ip_output.pico)
 .debug_abbrev  0x000000000000ccf1      0x4c8 librumpnet_net_pic.a(ip_reass.pico)
 .debug_abbrev  0x000000000000d1b9      0x58a librumpnet_net_pic.a(ip_input.pico)
 .debug_abbrev  0x000000000000d743      0x302 librumpnet_net_pic.a(ip_id.pico)
 .debug_abbrev  0x000000000000da45      0x671 librumpnet_net_pic.a(in_pcb.pico)
 .debug_abbrev  0x000000000000e0b6      0x5a4 librumpnet_net_pic.a(ip_flow.pico)
 .debug_abbrev  0x000000000000e65a      0x564 librumpnet_net_pic.a(ip_icmp.pico)
 .debug_abbrev  0x000000000000ebbe      0x3bf librumpnet_net_pic.a(in_proto.pico)
 .debug_abbrev  0x000000000000ef7d      0x643 librumpnet_net_pic.a(ip_carp.pico)
 .debug_abbrev  0x000000000000f5c0      0x63e librumpnet_net_pic.a(if_ethersubr.pico)
 .debug_abbrev  0x000000000000fbfe      0x309 librumpnet_net_pic.a(if_media.pico)
 .debug_abbrev  0x000000000000ff07      0x4e6 librumpnet_net_pic.a(if_loop.pico)
 .debug_abbrev  0x00000000000103ed      0x333 librumpnet_net_pic.a(in6_offload.pico)
 .debug_abbrev  0x0000000000010720      0x1f1 librumpnet_net_pic.a(in6_cksum.pico)
 .debug_abbrev  0x0000000000010911      0x323 librumpnet_net_pic.a(in_offload.pico)
 .debug_abbrev  0x0000000000010c34      0x1fa librumpnet_net_pic.a(in4_cksum.pico)
 .debug_abbrev  0x0000000000010e2e      0x618 librumpnet_net_pic.a(in.pico)
 .debug_abbrev  0x0000000000011446      0x513 librumpnet_net_pic.a(igmp.pico)
 .debug_abbrev  0x0000000000011959      0x2ce librumpnet_net_pic.a(net_stats.pico)
 .debug_abbrev  0x0000000000011c27       0xd1 librumpnet_net_pic.a(in_cksum.pico)
 .debug_abbrev  0x0000000000011cf8      0x1fc librumpnet_net_pic.a(cpu_in_cksum.pico)
 .debug_abbrev  0x0000000000011ef4      0x297 librumpnet_net_pic.a(uipc_syscalls_50.pico)
 .debug_abbrev  0x000000000001218b      0x301 librumpnet_net_pic.a(if_43.pico)
 .debug_abbrev  0x000000000001248c      0x525 librumpnet_net_pic.a(link_proto.pico)
 .debug_abbrev  0x00000000000129b1      0x6ab librumpnet_net_pic.a(rtsock_50.pico)
 .debug_abbrev  0x000000000001305c      0x672 librumpnet_net_pic.a(rtsock.pico)
 .debug_abbrev  0x00000000000136ce      0x440 librumpnet_net_pic.a(raw_usrreq.pico)
 .debug_abbrev  0x0000000000013b0e      0x316 librumpnet_net_pic.a(raw_cb.pico)
 .debug_abbrev  0x0000000000013e24      0x702 librumpnet_net_pic.a(route.pico)
 .debug_abbrev  0x0000000000014526      0x6fa librumpnet_net_pic.a(if.pico)
 .debug_abbrev  0x0000000000014c20      0x36c librumpnet_net_pic.a(pfil.pico)

.debug_line     0x0000000000000000    0x35bc2
 *(.debug_line)
 .debug_line    0x0000000000000000      0x8b7 librumpnet_net_pic.a(mpls_proto.pico)
 .debug_line    0x00000000000008b7      0x7d2 librumpnet_net_pic.a(net_component.pico)
 .debug_line    0x0000000000001089      0xeeb librumpnet_net_pic.a(udp6_usrreq.pico)
 .debug_line    0x0000000000001f74      0xbad librumpnet_net_pic.a(udp6_output.pico)
 .debug_line    0x0000000000002b21      0x5cf librumpnet_net_pic.a(scope6.pico)
 .debug_line    0x00000000000030f0      0x45d librumpnet_net_pic.a(route6.pico)
 .debug_line    0x000000000000354d      0xf2d librumpnet_net_pic.a(raw_ip6.pico)
 .debug_line    0x000000000000447a     0x113d librumpnet_net_pic.a(nd6_rtr.pico)
 .debug_line    0x00000000000055b7      0xfe7 librumpnet_net_pic.a(nd6_nbr.pico)
 .debug_line    0x000000000000659e     0x12d1 librumpnet_net_pic.a(nd6.pico)
 .debug_line    0x000000000000786f      0xe93 librumpnet_net_pic.a(mld6.pico)
 .debug_line    0x0000000000008702     0x17e4 librumpnet_net_pic.a(ip6_output.pico)
 .debug_line    0x0000000000009ee6     0x10bd librumpnet_net_pic.a(ip6_mroute.pico)
 .debug_line    0x000000000000afa3     0x1186 librumpnet_net_pic.a(ip6_input.pico)
 .debug_line    0x000000000000c129      0x799 librumpnet_net_pic.a(ip6_forward.pico)
 .debug_line    0x000000000000c8c2      0x89a librumpnet_net_pic.a(ip6_flow.pico)
 .debug_line    0x000000000000d15c      0xbca librumpnet_net_pic.a(in6_src.pico)
 .debug_line    0x000000000000dd26      0x777 librumpnet_net_pic.a(in6_proto.pico)
 .debug_line    0x000000000000e49d      0x8a0 librumpnet_net_pic.a(frag6.pico)
 .debug_line    0x000000000000ed3d      0x4a0 librumpnet_net_pic.a(dest6.pico)
 .debug_line    0x000000000000f1dd     0x139d librumpnet_net_pic.a(in6_pcb.pico)
 .debug_line    0x000000000001057a      0x907 librumpnet_net_pic.a(in6_ifattach.pico)
 .debug_line    0x0000000000010e81     0x12a4 librumpnet_net_pic.a(in6.pico)
 .debug_line    0x0000000000012125     0x17e3 librumpnet_net_pic.a(icmp6.pico)
 .debug_line    0x0000000000013908      0xf4b librumpnet_net_pic.a(udp_usrreq.pico)
 .debug_line    0x0000000000014853     0x178d librumpnet_net_pic.a(tcp_vtw.pico)
 .debug_line    0x0000000000015fe0     0x1343 librumpnet_net_pic.a(tcp_usrreq.pico)
 .debug_line    0x0000000000017323      0x983 librumpnet_net_pic.a(tcp_timer.pico)
 .debug_line    0x0000000000017ca6     0x156c librumpnet_net_pic.a(tcp_subr.pico)
 .debug_line    0x0000000000019212      0x3f3 librumpnet_net_pic.a(ip6_id.pico)
 .debug_line    0x0000000000019605     0x1248 librumpnet_net_pic.a(tcp_output.pico)
 .debug_line    0x000000000001a84d      0xbc1 librumpnet_net_pic.a(tcp_congctl.pico)
 .debug_line    0x000000000001b40e     0x245b librumpnet_net_pic.a(tcp_input.pico)
 .debug_line    0x000000000001d869      0x9ef librumpnet_net_pic.a(tcp_sack.pico)
 .debug_line    0x000000000001e258     0x1088 librumpnet_net_pic.a(if_arp.pico)
 .debug_line    0x000000000001f2e0      0xc74 librumpnet_net_pic.a(portalgo.pico)
 .debug_line    0x000000000001ff54      0xa7c librumpnet_net_pic.a(ip_encap.pico)
 .debug_line    0x00000000000209d0      0xe2f librumpnet_net_pic.a(raw_ip.pico)
 .debug_line    0x00000000000217ff     0x1251 librumpnet_net_pic.a(ip_output.pico)
 .debug_line    0x0000000000022a50      0xb28 librumpnet_net_pic.a(ip_reass.pico)
 .debug_line    0x0000000000023578      0xef6 librumpnet_net_pic.a(ip_input.pico)
 .debug_line    0x000000000002446e      0x4e3 librumpnet_net_pic.a(ip_id.pico)
 .debug_line    0x0000000000024951     0x1047 librumpnet_net_pic.a(in_pcb.pico)
 .debug_line    0x0000000000025998      0xbd6 librumpnet_net_pic.a(ip_flow.pico)
 .debug_line    0x000000000002656e      0xd68 librumpnet_net_pic.a(ip_icmp.pico)
 .debug_line    0x00000000000272d6      0x77e librumpnet_net_pic.a(in_proto.pico)
 .debug_line    0x0000000000027a54     0x15fd librumpnet_net_pic.a(ip_carp.pico)
 .debug_line    0x0000000000029051     0x11f1 librumpnet_net_pic.a(if_ethersubr.pico)
 .debug_line    0x000000000002a242      0x449 librumpnet_net_pic.a(if_media.pico)
 .debug_line    0x000000000002a68b      0x791 librumpnet_net_pic.a(if_loop.pico)
 .debug_line    0x000000000002ae1c      0x657 librumpnet_net_pic.a(in6_offload.pico)
 .debug_line    0x000000000002b473      0x2b9 librumpnet_net_pic.a(in6_cksum.pico)
 .debug_line    0x000000000002b72c      0x628 librumpnet_net_pic.a(in_offload.pico)
 .debug_line    0x000000000002bd54      0x1cf librumpnet_net_pic.a(in4_cksum.pico)
 .debug_line    0x000000000002bf23      0xf1b librumpnet_net_pic.a(in.pico)
 .debug_line    0x000000000002ce3e      0xb2e librumpnet_net_pic.a(igmp.pico)
 .debug_line    0x000000000002d96c      0x4cb librumpnet_net_pic.a(net_stats.pico)
 .debug_line    0x000000000002de37      0x20d librumpnet_net_pic.a(in_cksum.pico)
 .debug_line    0x000000000002e044      0x2f4 librumpnet_net_pic.a(cpu_in_cksum.pico)
 .debug_line    0x000000000002e338      0x6b3 librumpnet_net_pic.a(uipc_syscalls_50.pico)
 .debug_line    0x000000000002e9eb      0x8b8 librumpnet_net_pic.a(if_43.pico)
 .debug_line    0x000000000002f2a3      0x92c librumpnet_net_pic.a(link_proto.pico)
 .debug_line    0x000000000002fbcf     0x12ce librumpnet_net_pic.a(rtsock_50.pico)
 .debug_line    0x0000000000030e9d     0x10fa librumpnet_net_pic.a(rtsock.pico)
 .debug_line    0x0000000000031f97      0x803 librumpnet_net_pic.a(raw_usrreq.pico)
 .debug_line    0x000000000003279a      0x6d7 librumpnet_net_pic.a(raw_cb.pico)
 .debug_line    0x0000000000032e71     0x1380 librumpnet_net_pic.a(route.pico)
 .debug_line    0x00000000000341f1     0x1544 librumpnet_net_pic.a(if.pico)
 .debug_line    0x0000000000035735      0x48d librumpnet_net_pic.a(pfil.pico)

.debug_frame
 *(.debug_frame)

.debug_str      0x0000000000000000    0x14903
 *(.debug_str)
 .debug_str     0x0000000000000000     0x3722 librumpnet_net_pic.a(mpls_proto.pico)
                                       0x3b29 (size before relaxing)
 .debug_str     0x0000000000003722      0xdd5 librumpnet_net_pic.a(net_component.pico)
                                       0x41f0 (size before relaxing)
 .debug_str     0x00000000000044f7     0x106b librumpnet_net_pic.a(udp6_usrreq.pico)
                                       0x47f1 (size before relaxing)
 .debug_str     0x0000000000005562      0x35e librumpnet_net_pic.a(udp6_output.pico)
                                       0x429e (size before relaxing)
 .debug_str     0x00000000000058c0      0x608 librumpnet_net_pic.a(scope6.pico)
                                       0x151b (size before relaxing)
 .debug_str     0x0000000000005ec8       0xa7 librumpnet_net_pic.a(route6.pico)
                                       0x102d (size before relaxing)
 .debug_str     0x0000000000005f6f      0xd85 librumpnet_net_pic.a(raw_ip6.pico)
                                       0x531e (size before relaxing)
 .debug_str     0x0000000000006cf4      0x996 librumpnet_net_pic.a(nd6_rtr.pico)
                                       0x212b (size before relaxing)
 .debug_str     0x000000000000768a      0x8a5 librumpnet_net_pic.a(nd6_nbr.pico)
                                       0x4d58 (size before relaxing)
 .debug_str     0x0000000000007f2f      0x53e librumpnet_net_pic.a(nd6.pico)
                                       0x21f3 (size before relaxing)
 .debug_str     0x000000000000846d      0x30d librumpnet_net_pic.a(mld6.pico)
                                       0x436e (size before relaxing)
 .debug_str     0x000000000000877a      0x60f librumpnet_net_pic.a(ip6_output.pico)
                                       0x591f (size before relaxing)
 .debug_str     0x0000000000008d89      0x5db librumpnet_net_pic.a(ip6_mroute.pico)
                                       0x48b8 (size before relaxing)
 .debug_str     0x0000000000009364      0x5cc librumpnet_net_pic.a(ip6_input.pico)
                                       0x545b (size before relaxing)
 .debug_str     0x0000000000009930      0x146 librumpnet_net_pic.a(ip6_forward.pico)
                                       0x1885 (size before relaxing)
 .debug_str     0x0000000000009a76      0x1d0 librumpnet_net_pic.a(ip6_flow.pico)
                                       0x17f8 (size before relaxing)
 .debug_str     0x0000000000009c46      0x3eb librumpnet_net_pic.a(in6_src.pico)
                                       0x505e (size before relaxing)
 .debug_str     0x000000000000a031      0x255 librumpnet_net_pic.a(in6_proto.pico)
                                       0x3e23 (size before relaxing)
 .debug_str     0x000000000000a286      0x370 librumpnet_net_pic.a(frag6.pico)
                                       0x1900 (size before relaxing)
 .debug_str     0x000000000000a5f6       0xb1 librumpnet_net_pic.a(dest6.pico)
                                        0xfe8 (size before relaxing)
 .debug_str     0x000000000000a6a7      0x2a8 librumpnet_net_pic.a(in6_pcb.pico)
                                       0x5479 (size before relaxing)
 .debug_str     0x000000000000a94f      0x1ed librumpnet_net_pic.a(in6_ifattach.pico)
                                       0x1a94 (size before relaxing)
 .debug_str     0x000000000000ab3c      0x429 librumpnet_net_pic.a(in6.pico)
                                       0x4efb (size before relaxing)
 .debug_str     0x000000000000af65      0x54b librumpnet_net_pic.a(icmp6.pico)
                                       0x57b5 (size before relaxing)
 .debug_str     0x000000000000b4b0      0x586 librumpnet_net_pic.a(udp_usrreq.pico)
                                       0x45d1 (size before relaxing)
 .debug_str     0x000000000000ba36      0xa84 librumpnet_net_pic.a(tcp_vtw.pico)
                                       0x4e1a (size before relaxing)
 .debug_str     0x000000000000c4ba      0x9a2 librumpnet_net_pic.a(tcp_usrreq.pico)
                                       0x5ee9 (size before relaxing)
 .debug_str     0x000000000000ce5c      0x303 librumpnet_net_pic.a(tcp_timer.pico)
                                       0x43a5 (size before relaxing)
 .debug_str     0x000000000000d15f      0x42a librumpnet_net_pic.a(tcp_subr.pico)
                                       0x5d5f (size before relaxing)
 .debug_str     0x000000000000d589      0x146 librumpnet_net_pic.a(ip6_id.pico)
                                        0x323 (size before relaxing)
 .debug_str     0x000000000000d6cf      0x210 librumpnet_net_pic.a(tcp_output.pico)
                                       0x548f (size before relaxing)
 .debug_str     0x000000000000d8df      0x3e0 librumpnet_net_pic.a(tcp_congctl.pico)
                                       0x4bdf (size before relaxing)
 .debug_str     0x000000000000dcbf      0x4e8 librumpnet_net_pic.a(tcp_input.pico)
                                       0x59a3 (size before relaxing)
 .debug_str     0x000000000000e1a7      0x106 librumpnet_net_pic.a(tcp_sack.pico)
                                       0x4cc8 (size before relaxing)
 .debug_str     0x000000000000e2ad      0x4a7 librumpnet_net_pic.a(if_arp.pico)
                                       0x41e1 (size before relaxing)
 .debug_str     0x000000000000e754      0x302 librumpnet_net_pic.a(portalgo.pico)
                                       0x4ee3 (size before relaxing)
 .debug_str     0x000000000000ea56      0x20a librumpnet_net_pic.a(ip_encap.pico)
                                       0x3c34 (size before relaxing)
 .debug_str     0x000000000000ec60      0x3e1 librumpnet_net_pic.a(raw_ip.pico)
                                       0x4259 (size before relaxing)
 .debug_str     0x000000000000f041      0x5c3 librumpnet_net_pic.a(ip_output.pico)
                                       0x4570 (size before relaxing)
 .debug_str     0x000000000000f604      0x2cd librumpnet_net_pic.a(ip_reass.pico)
                                       0x3af3 (size before relaxing)
 .debug_str     0x000000000000f8d1      0x333 librumpnet_net_pic.a(ip_input.pico)
                                       0x4d64 (size before relaxing)
 .debug_str     0x000000000000fc04       0xd9 librumpnet_net_pic.a(ip_id.pico)
                                        0xc63 (size before relaxing)
 .debug_str     0x000000000000fcdd      0x12a librumpnet_net_pic.a(in_pcb.pico)
                                       0x53d8 (size before relaxing)
 .debug_str     0x000000000000fe07      0x21f librumpnet_net_pic.a(ip_flow.pico)
                                       0x3aef (size before relaxing)
 .debug_str     0x0000000000010026      0x2e5 librumpnet_net_pic.a(ip_icmp.pico)
                                       0x41ee (size before relaxing)
 .debug_str     0x000000000001030b      0x1a5 librumpnet_net_pic.a(in_proto.pico)
                                       0x3825 (size before relaxing)
 .debug_str     0x00000000000104b0      0x993 librumpnet_net_pic.a(ip_carp.pico)
                                       0x585d (size before relaxing)
 .debug_str     0x0000000000010e43      0xac7 librumpnet_net_pic.a(if_ethersubr.pico)
                                       0x4b45 (size before relaxing)
 .debug_str     0x000000000001190a      0x1b7 librumpnet_net_pic.a(if_media.pico)
                                        0xb98 (size before relaxing)
 .debug_str     0x0000000000011ac1      0x11a librumpnet_net_pic.a(if_loop.pico)
                                       0x13e0 (size before relaxing)
 .debug_str     0x0000000000011bdb      0x117 librumpnet_net_pic.a(in6_offload.pico)
                                       0x1026 (size before relaxing)
 .debug_str     0x0000000000011cf2       0xac librumpnet_net_pic.a(in6_cksum.pico)
                                        0x4a0 (size before relaxing)
 .debug_str     0x0000000000011d9e       0xe7 librumpnet_net_pic.a(in_offload.pico)
                                        0xc7a (size before relaxing)
 .debug_str     0x0000000000011e85       0x9e librumpnet_net_pic.a(in4_cksum.pico)
                                        0x3d6 (size before relaxing)
 .debug_str     0x0000000000011f23      0x2d2 librumpnet_net_pic.a(in.pico)
                                       0x4be9 (size before relaxing)
 .debug_str     0x00000000000121f5      0x1bb librumpnet_net_pic.a(igmp.pico)
                                       0x3c5d (size before relaxing)
 .debug_str     0x00000000000123b0      0x11b librumpnet_net_pic.a(net_stats.pico)
                                       0x26ea (size before relaxing)
 .debug_str     0x00000000000124cb       0x95 librumpnet_net_pic.a(in_cksum.pico)
                                        0x1b1 (size before relaxing)
 .debug_str     0x0000000000012560       0xdd librumpnet_net_pic.a(cpu_in_cksum.pico)
                                        0x418 (size before relaxing)
 .debug_str     0x000000000001263d       0xe1 librumpnet_net_pic.a(uipc_syscalls_50.pico)
                                       0x3317 (size before relaxing)
 .debug_str     0x000000000001271e      0x56b librumpnet_net_pic.a(if_43.pico)
                                       0x3f12 (size before relaxing)
 .debug_str     0x0000000000012c89      0x29c librumpnet_net_pic.a(link_proto.pico)
                                       0x3af9 (size before relaxing)
 .debug_str     0x0000000000012f25      0xaf7 librumpnet_net_pic.a(rtsock_50.pico)
                                       0x4cb1 (size before relaxing)
 .debug_str     0x0000000000013a1c       0xe1 librumpnet_net_pic.a(rtsock.pico)
                                       0x4a9d (size before relaxing)
 .debug_str     0x0000000000013afd       0xb3 librumpnet_net_pic.a(raw_usrreq.pico)
                                       0x38f0 (size before relaxing)
 .debug_str     0x0000000000013bb0       0xab librumpnet_net_pic.a(raw_cb.pico)
                                       0x379a (size before relaxing)
 .debug_str     0x0000000000013c5b      0x378 librumpnet_net_pic.a(route.pico)
                                       0x47a7 (size before relaxing)
 .debug_str     0x0000000000013fd3      0x795 librumpnet_net_pic.a(if.pico)
                                       0x5354 (size before relaxing)
 .debug_str     0x0000000000014768      0x19b librumpnet_net_pic.a(pfil.pico)
                                        0xa10 (size before relaxing)

.debug_loc      0x0000000000000000    0x64c53
 *(.debug_loc)
 .debug_loc     0x0000000000000000      0x710 librumpnet_net_pic.a(mpls_proto.pico)
 .debug_loc     0x0000000000000710       0xcc librumpnet_net_pic.a(net_component.pico)
 .debug_loc     0x00000000000007dc     0x152f librumpnet_net_pic.a(udp6_usrreq.pico)
 .debug_loc     0x0000000000001d0b      0xc82 librumpnet_net_pic.a(udp6_output.pico)
 .debug_loc     0x000000000000298d      0x7bb librumpnet_net_pic.a(scope6.pico)
 .debug_loc     0x0000000000003148      0x14c librumpnet_net_pic.a(route6.pico)
 .debug_loc     0x0000000000003294     0x1a7a librumpnet_net_pic.a(raw_ip6.pico)
 .debug_loc     0x0000000000004d0e     0x2f87 librumpnet_net_pic.a(nd6_rtr.pico)
 .debug_loc     0x0000000000007c95     0x2456 librumpnet_net_pic.a(nd6_nbr.pico)
 .debug_loc     0x000000000000a0eb     0x2d7a librumpnet_net_pic.a(nd6.pico)
 .debug_loc     0x000000000000ce65     0x17ba librumpnet_net_pic.a(mld6.pico)
 .debug_loc     0x000000000000e61f     0x497a librumpnet_net_pic.a(ip6_output.pico)
 .debug_loc     0x0000000000012f99     0x27e0 librumpnet_net_pic.a(ip6_mroute.pico)
 .debug_loc     0x0000000000015779     0x2073 librumpnet_net_pic.a(ip6_input.pico)
 .debug_loc     0x00000000000177ec      0x64a librumpnet_net_pic.a(ip6_forward.pico)
 .debug_loc     0x0000000000017e36      0xc17 librumpnet_net_pic.a(ip6_flow.pico)
 .debug_loc     0x0000000000018a4d     0x1165 librumpnet_net_pic.a(in6_src.pico)
 .debug_loc     0x0000000000019bb2      0x2ec librumpnet_net_pic.a(in6_proto.pico)
 .debug_loc     0x0000000000019e9e      0xf0e librumpnet_net_pic.a(frag6.pico)
 .debug_loc     0x000000000001adac      0x31c librumpnet_net_pic.a(dest6.pico)
 .debug_loc     0x000000000001b0c8     0x2004 librumpnet_net_pic.a(in6_pcb.pico)
 .debug_loc     0x000000000001d0cc      0xb2f librumpnet_net_pic.a(in6_ifattach.pico)
 .debug_loc     0x000000000001dbfb     0x2dd0 librumpnet_net_pic.a(in6.pico)
 .debug_loc     0x00000000000209cb     0x5dba librumpnet_net_pic.a(icmp6.pico)
 .debug_loc     0x0000000000026785     0x1dec librumpnet_net_pic.a(udp_usrreq.pico)
 .debug_loc     0x0000000000028571     0x58fe librumpnet_net_pic.a(tcp_vtw.pico)
 .debug_loc     0x000000000002de6f     0x2653 librumpnet_net_pic.a(tcp_usrreq.pico)
 .debug_loc     0x00000000000304c2      0x522 librumpnet_net_pic.a(tcp_timer.pico)
 .debug_loc     0x00000000000309e4     0x2cec librumpnet_net_pic.a(tcp_subr.pico)
 .debug_loc     0x00000000000336d0      0x5bb librumpnet_net_pic.a(ip6_id.pico)
 .debug_loc     0x0000000000033c8b     0x3b2f librumpnet_net_pic.a(tcp_output.pico)
 .debug_loc     0x00000000000377ba     0x1209 librumpnet_net_pic.a(tcp_congctl.pico)
 .debug_loc     0x00000000000389c3     0x6140 librumpnet_net_pic.a(tcp_input.pico)
 .debug_loc     0x000000000003eb03      0x7fb librumpnet_net_pic.a(tcp_sack.pico)
 .debug_loc     0x000000000003f2fe     0x1c3e librumpnet_net_pic.a(if_arp.pico)
 .debug_loc     0x0000000000040f3c     0x168a librumpnet_net_pic.a(portalgo.pico)
 .debug_loc     0x00000000000425c6     0x122e librumpnet_net_pic.a(ip_encap.pico)
 .debug_loc     0x00000000000437f4     0x1616 librumpnet_net_pic.a(raw_ip.pico)
 .debug_loc     0x0000000000044e0a     0x3051 librumpnet_net_pic.a(ip_output.pico)
 .debug_loc     0x0000000000047e5b     0x10a9 librumpnet_net_pic.a(ip_reass.pico)
 .debug_loc     0x0000000000048f04     0x1c24 librumpnet_net_pic.a(ip_input.pico)
 .debug_loc     0x000000000004ab28      0x1cf librumpnet_net_pic.a(ip_id.pico)
 .debug_loc     0x000000000004acf7     0x1f2b librumpnet_net_pic.a(in_pcb.pico)
 .debug_loc     0x000000000004cc22      0xc23 librumpnet_net_pic.a(ip_flow.pico)
 .debug_loc     0x000000000004d845     0x16d6 librumpnet_net_pic.a(ip_icmp.pico)
 .debug_loc     0x000000000004ef1b      0x3b5 librumpnet_net_pic.a(in_proto.pico)
 .debug_loc     0x000000000004f2d0     0x38a5 librumpnet_net_pic.a(ip_carp.pico)
 .debug_loc     0x0000000000052b75     0x1b15 librumpnet_net_pic.a(if_ethersubr.pico)
 .debug_loc     0x000000000005468a      0x746 librumpnet_net_pic.a(if_media.pico)
 .debug_loc     0x0000000000054dd0      0x49d librumpnet_net_pic.a(if_loop.pico)
 .debug_loc     0x000000000005526d      0x8a4 librumpnet_net_pic.a(in6_offload.pico)
 .debug_loc     0x0000000000055b11      0x2cb librumpnet_net_pic.a(in6_cksum.pico)
 .debug_loc     0x0000000000055ddc      0x9fe librumpnet_net_pic.a(in_offload.pico)
 .debug_loc     0x00000000000567da      0x14d librumpnet_net_pic.a(in4_cksum.pico)
 .debug_loc     0x0000000000056927     0x1b17 librumpnet_net_pic.a(in.pico)
 .debug_loc     0x000000000005843e      0xa3b librumpnet_net_pic.a(igmp.pico)
 .debug_loc     0x0000000000058e79      0x1a5 librumpnet_net_pic.a(net_stats.pico)
 .debug_loc     0x000000000005901e       0x38 librumpnet_net_pic.a(in_cksum.pico)
 .debug_loc     0x0000000000059056      0x44a librumpnet_net_pic.a(cpu_in_cksum.pico)
 .debug_loc     0x00000000000594a0       0x76 librumpnet_net_pic.a(uipc_syscalls_50.pico)
 .debug_loc     0x0000000000059516      0x335 librumpnet_net_pic.a(if_43.pico)
 .debug_loc     0x000000000005984b      0xc86 librumpnet_net_pic.a(link_proto.pico)
 .debug_loc     0x000000000005a4d1     0x20d1 librumpnet_net_pic.a(rtsock_50.pico)
 .debug_loc     0x000000000005c5a2     0x1f64 librumpnet_net_pic.a(rtsock.pico)
 .debug_loc     0x000000000005e506      0x489 librumpnet_net_pic.a(raw_usrreq.pico)
 .debug_loc     0x000000000005e98f      0x159 librumpnet_net_pic.a(raw_cb.pico)
 .debug_loc     0x000000000005eae8     0x20c3 librumpnet_net_pic.a(route.pico)
 .debug_loc     0x0000000000060bab     0x3704 librumpnet_net_pic.a(if.pico)
 .debug_loc     0x00000000000642af      0x9a4 librumpnet_net_pic.a(pfil.pico)

.debug_macinfo
 *(.debug_macinfo)

.debug_weaknames
 *(.debug_weaknames)

.debug_funcnames
 *(.debug_funcnames)

.debug_typenames
 *(.debug_typenames)

.debug_varnames
 *(.debug_varnames)

.debug_pubtypes
 *(.debug_pubtypes)

.debug_ranges   0x0000000000000000     0xd070
 *(.debug_ranges)
 .debug_ranges  0x0000000000000000      0x318 librumpnet_net_pic.a(mpls_proto.pico)
 .debug_ranges  0x0000000000000318      0x578 librumpnet_net_pic.a(udp6_usrreq.pico)
 .debug_ranges  0x0000000000000890      0x170 librumpnet_net_pic.a(udp6_output.pico)
 .debug_ranges  0x0000000000000a00       0x38 librumpnet_net_pic.a(route6.pico)
 .debug_ranges  0x0000000000000a38      0x448 librumpnet_net_pic.a(raw_ip6.pico)
 .debug_ranges  0x0000000000000e80      0x5f8 librumpnet_net_pic.a(nd6_rtr.pico)
 .debug_ranges  0x0000000000001478      0x328 librumpnet_net_pic.a(nd6_nbr.pico)
 .debug_ranges  0x00000000000017a0      0x550 librumpnet_net_pic.a(nd6.pico)
 .debug_ranges  0x0000000000001cf0      0x298 librumpnet_net_pic.a(mld6.pico)
 .debug_ranges  0x0000000000001f88      0x888 librumpnet_net_pic.a(ip6_output.pico)
 .debug_ranges  0x0000000000002810      0x6e8 librumpnet_net_pic.a(ip6_mroute.pico)
 .debug_ranges  0x0000000000002ef8      0x428 librumpnet_net_pic.a(ip6_input.pico)
 .debug_ranges  0x0000000000003320      0x290 librumpnet_net_pic.a(ip6_forward.pico)
 .debug_ranges  0x00000000000035b0      0x230 librumpnet_net_pic.a(ip6_flow.pico)
 .debug_ranges  0x00000000000037e0      0x2c0 librumpnet_net_pic.a(in6_src.pico)
 .debug_ranges  0x0000000000003aa0      0x160 librumpnet_net_pic.a(frag6.pico)
 .debug_ranges  0x0000000000003c00       0x48 librumpnet_net_pic.a(dest6.pico)
 .debug_ranges  0x0000000000003c48      0x490 librumpnet_net_pic.a(in6_pcb.pico)
 .debug_ranges  0x00000000000040d8      0x1d0 librumpnet_net_pic.a(in6_ifattach.pico)
 .debug_ranges  0x00000000000042a8      0x438 librumpnet_net_pic.a(in6.pico)
 .debug_ranges  0x00000000000046e0      0xa90 librumpnet_net_pic.a(icmp6.pico)
 .debug_ranges  0x0000000000005170      0x728 librumpnet_net_pic.a(udp_usrreq.pico)
 .debug_ranges  0x0000000000005898     0x1468 librumpnet_net_pic.a(tcp_vtw.pico)
 .debug_ranges  0x0000000000006d00      0x628 librumpnet_net_pic.a(tcp_usrreq.pico)
 .debug_ranges  0x0000000000007328       0xd8 librumpnet_net_pic.a(tcp_timer.pico)
 .debug_ranges  0x0000000000007400      0x4e0 librumpnet_net_pic.a(tcp_subr.pico)
 .debug_ranges  0x00000000000078e0       0xf0 librumpnet_net_pic.a(ip6_id.pico)
 .debug_ranges  0x00000000000079d0      0x5f0 librumpnet_net_pic.a(tcp_output.pico)
 .debug_ranges  0x0000000000007fc0      0x128 librumpnet_net_pic.a(tcp_congctl.pico)
 .debug_ranges  0x00000000000080e8      0xac0 librumpnet_net_pic.a(tcp_input.pico)
 .debug_ranges  0x0000000000008ba8      0x148 librumpnet_net_pic.a(if_arp.pico)
 .debug_ranges  0x0000000000008cf0      0x140 librumpnet_net_pic.a(portalgo.pico)
 .debug_ranges  0x0000000000008e30      0x188 librumpnet_net_pic.a(ip_encap.pico)
 .debug_ranges  0x0000000000008fb8      0x548 librumpnet_net_pic.a(raw_ip.pico)
 .debug_ranges  0x0000000000009500      0x510 librumpnet_net_pic.a(ip_output.pico)
 .debug_ranges  0x0000000000009a10      0x120 librumpnet_net_pic.a(ip_reass.pico)
 .debug_ranges  0x0000000000009b30      0x370 librumpnet_net_pic.a(ip_input.pico)
 .debug_ranges  0x0000000000009ea0       0x30 librumpnet_net_pic.a(ip_id.pico)
 .debug_ranges  0x0000000000009ed0      0x408 librumpnet_net_pic.a(in_pcb.pico)
 .debug_ranges  0x000000000000a2d8      0x360 librumpnet_net_pic.a(ip_flow.pico)
 .debug_ranges  0x000000000000a638       0xf0 librumpnet_net_pic.a(ip_icmp.pico)
 .debug_ranges  0x000000000000a728      0x680 librumpnet_net_pic.a(ip_carp.pico)
 .debug_ranges  0x000000000000ada8      0x178 librumpnet_net_pic.a(if_ethersubr.pico)
 .debug_ranges  0x000000000000af20       0x98 librumpnet_net_pic.a(if_loop.pico)
 .debug_ranges  0x000000000000afb8       0x50 librumpnet_net_pic.a(in6_offload.pico)
 .debug_ranges  0x000000000000b008       0x70 librumpnet_net_pic.a(in_offload.pico)
 .debug_ranges  0x000000000000b078      0x450 librumpnet_net_pic.a(in.pico)
 .debug_ranges  0x000000000000b4c8      0x1a0 librumpnet_net_pic.a(igmp.pico)
 .debug_ranges  0x000000000000b668      0x128 librumpnet_net_pic.a(link_proto.pico)
 .debug_ranges  0x000000000000b790      0x548 librumpnet_net_pic.a(rtsock_50.pico)
 .debug_ranges  0x000000000000bcd8      0x5e0 librumpnet_net_pic.a(rtsock.pico)
 .debug_ranges  0x000000000000c2b8      0x100 librumpnet_net_pic.a(raw_usrreq.pico)
 .debug_ranges  0x000000000000c3b8      0x5c8 librumpnet_net_pic.a(route.pico)
 .debug_ranges  0x000000000000c980      0x4e0 librumpnet_net_pic.a(if.pico)
 .debug_ranges  0x000000000000ce60      0x210 librumpnet_net_pic.a(pfil.pico)

.gnu.attributes
 *(.gnu.attributes)

/DISCARD/
 *(.note.GNU-stack)
 *(.gnu_debuglink)
 *(.gnu.lto_*)
OUTPUT(librumpnet_net.so.0.0 elf32-i386)
